(dp1
I0
(lp2
(lp3
I0
aI0
aI0
aI1
aI0
aI1
aI1
aI0
aa(lp4
I1
aI1
aI1
aI1
aI1
aI0
aI0
aI1
aa(lp5
I0
aI0
aI0
aI1
aI0
aI1
aI0
aI0
aa(lp6
I0
aI1
aI0
aI1
aI0
aI0
aI1
aI1
aa(lp7
I1
aI0
aI1
aI0
aI1
aI0
aI1
aI0
aa(lp8
I0
aI0
aI0
aI1
aI0
aI1
aI0
aI0
aa(lp9
I1
aI1
aI1
aI0
aI0
aI1
aI0
aI0
aa(lp10
I1
aI0
aI0
aI0
aI0
aI1
aI0
aI0
aasI1
(lp11
(lp12
I0
aI0
aI1
aI1
aI1
aI0
aI1
aI0
aa(lp13
I1
aI1
aI0
aI0
aI0
aI1
aI1
aI0
aa(lp14
I0
aI0
aI0
aI0
aI0
aI0
aI0
aI1
aa(lp15
I1
aI0
aI0
aI1
aI0
aI0
aI0
aI0
aa(lp16
I0
aI0
aI0
aI0
aI1
aI0
aI0
aI0
aa(lp17
I0
aI0
aI1
aI0
aI0
aI0
aI1
aI0
aa(lp18
I0
aI1
aI1
aI1
aI0
aI0
aI0
aI0
aa(lp19
I0
aI0
aI0
aI0
aI0
aI0
aI0
aI0
aasI2
(lp20
(lp21
I0
aI0
aI1
aI0
aI1
aI0
aI0
aI1
aa(lp22
I1
aI0
aI0
aI0
aI0
aI1
aI0
aI1
aa(lp23
I0
aI1
aI0
aI1
aI0
aI0
aI1
aI0
aa(lp24
I0
aI0
aI0
aI0
aI0
aI0
aI1
aI0
aa(lp25
I1
aI1
aI0
aI1
aI0
aI1
aI0
aI0
aa(lp26
I0
aI1
aI0
aI0
aI0
aI0
aI0
aI0
aa(lp27
I0
aI0
aI0
aI0
aI1
aI0
aI1
aI1
aa(lp28
I1
aI1
aI0
aI0
aI1
aI1
aI1
aI0
aasI3
(lp29
(lp30
I0
aI0
aI1
aI0
aI0
aI0
aI1
aI0
aa(lp31
I1
aI1
aI0
aI0
aI0
aI1
aI1
aI1
aa(lp32
I0
aI0
aI0
aI0
aI1
aI0
aI1
aI0
aa(lp33
I1
aI0
aI1
aI0
aI1
aI0
aI0
aI1
aa(lp34
I0
aI0
aI0
aI1
aI0
aI1
aI1
aI1
aa(lp35
I0
aI0
aI1
aI1
aI0
aI1
aI0
aI0
aa(lp36
I0
aI1
aI0
aI0
aI0
aI0
aI0
aI0
aa(lp37
I0
aI1
aI0
aI0
aI0
aI0
aI1
aI0
aasI4
(lp38
(lp39
I0
aI0
aI0
aI1
aI0
aI1
aI0
aI1
aa(lp40
I0
aI0
aI0
aI0
aI1
aI0
aI0
aI0
aa(lp41
I0
aI0
aI0
aI0
aI0
aI0
aI0
aI1
aa(lp42
I1
aI1
aI0
aI0
aI0
aI1
aI0
aI0
aa(lp43
I0
aI0
aI0
aI1
aI1
aI1
aI0
aI0
aa(lp44
I0
aI0
aI0
aI0
aI0
aI1
aI1
aI1
aa(lp45
I0
aI0
aI0
aI1
aI0
aI0
aI1
aI0
aa(lp46
I0
aI0
aI0
aI0
aI0
aI0
aI1
aI0
aasI5
(lp47
(lp48
I0
aI0
aI1
aI0
aI0
aI0
aI0
aI0
aa(lp49
I1
aI0
aI1
aI0
aI0
aI1
aI0
aI0
aa(lp50
I1
aI1
aI0
aI1
aI0
aI0
aI1
aI0
aa(lp51
I0
aI1
aI1
aI0
aI1
aI0
aI0
aI0
aa(lp52
I0
aI0
aI0
aI0
aI0
aI0
aI1
aI1
aa(lp53
I1
aI0
aI0
aI0
aI1
aI0
aI0
aI0
aa(lp54
I0
aI1
aI0
aI1
aI0
aI0
aI1
aI0
aa(lp55
I0
aI1
aI0
aI0
aI1
aI0
aI0
aI0
aasI6
(lp56
(lp57
I0
aI1
aI0
aI0
aI0
aI0
aI1
aI1
aa(lp58
I1
aI1
aI0
aI0
aI0
aI0
aI0
aI1
aa(lp59
I0
aI1
aI0
aI0
aI1
aI1
aI0
aI0
aa(lp60
I1
aI0
aI1
aI0
aI0
aI1
aI0
aI1
aa(lp61
I1
aI0
aI0
aI1
aI1
aI1
aI0
aI0
aa(lp62
I1
aI0
aI0
aI0
aI1
aI0
aI1
aI0
aa(lp63
I0
aI1
aI0
aI1
aI1
aI0
aI0
aI0
aa(lp64
I1
aI1
aI0
aI1
aI1
aI0
aI1
aI0
aasI7
(lp65
(lp66
I0
aI0
aI1
aI1
aI0
aI0
aI1
aI0
aa(lp67
I0
aI0
aI0
aI1
aI1
aI0
aI0
aI0
aa(lp68
I0
aI1
aI1
aI0
aI1
aI0
aI0
aI1
aa(lp69
I1
aI1
aI0
aI1
aI1
aI0
aI1
aI0
aa(lp70
I0
aI1
aI1
aI1
aI0
aI0
aI0
aI0
aa(lp71
I1
aI0
aI0
aI0
aI0
aI0
aI0
aI1
aa(lp72
I0
aI0
aI0
aI0
aI1
aI1
aI0
aI1
aa(lp73
I0
aI0
aI0
aI0
aI0
aI1
aI1
aI0
aasI8
(lp74
(lp75
I0
aI0
aI0
aI0
aI0
aI0
aI0
aI0
aa(lp76
I0
aI0
aI0
aI0
aI0
aI1
aI0
aI0
aa(lp77
I1
aI1
aI0
aI0
aI0
aI0
aI1
aI0
aa(lp78
I0
aI0
aI1
aI1
aI1
aI0
aI0
aI0
aa(lp79
I0
aI0
aI0
aI0
aI0
aI1
aI1
aI0
aa(lp80
I0
aI0
aI1
aI1
aI1
aI0
aI1
aI0
aa(lp81
I1
aI1
aI1
aI0
aI0
aI0
aI0
aI1
aa(lp82
I0
aI0
aI0
aI1
aI0
aI0
aI0
aI0
aasI9
(lp83
(lp84
I0
aI1
aI1
aI1
aI1
aI1
aI0
aI1
aa(lp85
I1
aI1
aI0
aI0
aI1
aI0
aI1
aI1
aa(lp86
I1
aI0
aI0
aI0
aI1
aI0
aI0
aI1
aa(lp87
I1
aI1
aI1
aI1
aI1
aI0
aI0
aI1
aa(lp88
I1
aI0
aI0
aI0
aI0
aI1
aI1
aI0
aa(lp89
I0
aI0
aI0
aI0
aI0
aI0
aI1
aI0
aa(lp90
I0
aI0
aI0
aI0
aI1
aI0
aI0
aI0
aa(lp91
I0
aI0
aI0
aI0
aI1
aI0
aI0
aI0
aasI10
(lp92
(lp93
I0
aI1
aI0
aI1
aI0
aI0
aI0
aI1
aa(lp94
I0
aI1
aI0
aI0
aI0
aI1
aI0
aI1
aa(lp95
I0
aI0
aI0
aI0
aI0
aI1
aI1
aI0
aa(lp96
I0
aI1
aI0
aI0
aI1
aI1
aI0
aI0
aa(lp97
I1
aI1
aI0
aI0
aI1
aI0
aI1
aI0
aa(lp98
I0
aI0
aI0
aI1
aI0
aI0
aI0
aI0
aa(lp99
I0
aI1
aI1
aI0
aI1
aI0
aI0
aI0
aa(lp100
I0
aI1
aI0
aI0
aI0
aI0
aI0
aI0
aasI11
(lp101
(lp102
I0
aI0
aI0
aI0
aI1
aI0
aI0
aI0
aa(lp103
I0
aI0
aI0
aI0
aI1
aI1
aI0
aI0
aa(lp104
I1
aI0
aI0
aI1
aI1
aI0
aI1
aI1
aa(lp105
I0
aI1
aI1
aI0
aI0
aI1
aI0
aI0
aa(lp106
I1
aI0
aI0
aI0
aI0
aI1
aI1
aI0
aa(lp107
I1
aI1
aI1
aI0
aI0
aI1
aI0
aI0
aa(lp108
I0
aI0
aI0
aI1
aI1
aI0
aI0
aI0
aa(lp109
I0
aI0
aI0
aI0
aI0
aI0
aI1
aI0
aasI12
(lp110
(lp111
I0
aI1
aI0
aI1
aI1
aI0
aI0
aI1
aa(lp112
I0
aI0
aI0
aI1
aI0
aI1
aI0
aI0
aa(lp113
I1
aI0
aI0
aI1
aI0
aI0
aI1
aI1
aa(lp114
I1
aI1
aI0
aI1
aI0
aI1
aI0
aI0
aa(lp115
I1
aI0
aI0
aI0
aI1
aI0
aI0
aI1
aa(lp116
I0
aI1
aI0
aI1
aI0
aI0
aI0
aI1
aa(lp117
I0
aI1
aI0
aI0
aI1
aI0
aI1
aI1
aa(lp118
I1
aI1
aI1
aI1
aI0
aI0
aI1
aI0
aasI13
(lp119
(lp120
I0
aI0
aI0
aI0
aI0
aI0
aI0
aI0
aa(lp121
I0
aI0
aI1
aI1
aI0
aI1
aI0
aI0
aa(lp122
I1
aI1
aI0
aI0
aI0
aI1
aI1
aI0
aa(lp123
I0
aI0
aI0
aI1
aI0
aI1
aI0
aI1
aa(lp124
I0
aI0
aI1
aI0
aI1
aI0
aI0
aI1
aa(lp125
I0
aI1
aI1
aI0
aI1
aI0
aI0
aI1
aa(lp126
I1
aI0
aI1
aI0
aI0
aI0
aI0
aI0
aa(lp127
I0
aI0
aI0
aI0
aI0
aI0
aI0
aI0
aasI14
(lp128
(lp129
I0
aI1
aI1
aI0
aI0
aI0
aI0
aI1
aa(lp130
I0
aI1
aI0
aI1
aI1
aI1
aI0
aI0
aa(lp131
I1
aI1
aI0
aI1
aI0
aI1
aI0
aI0
aa(lp132
I0
aI1
aI0
aI1
aI1
aI0
aI1
aI0
aa(lp133
I0
aI0
aI1
aI0
aI1
aI0
aI0
aI0
aa(lp134
I0
aI0
aI0
aI0
aI0
aI1
aI0
aI0
aa(lp135
I1
aI1
aI0
aI0
aI1
aI1
aI1
aI0
aa(lp136
I0
aI1
aI0
aI0
aI0
aI0
aI0
aI0
aasI15
(lp137
(lp138
I0
aI0
aI0
aI0
aI0
aI0
aI0
aI0
aa(lp139
I0
aI0
aI0
aI0
aI1
aI0
aI1
aI0
aa(lp140
I0
aI0
aI0
aI0
aI0
aI1
aI0
aI0
aa(lp141
I1
aI0
aI1
aI1
aI0
aI0
aI1
aI0
aa(lp142
I0
aI1
aI0
aI0
aI1
aI0
aI1
aI1
aa(lp143
I1
aI0
aI0
aI0
aI0
aI1
aI1
aI0
aa(lp144
I0
aI1
aI0
aI0
aI0
aI0
aI0
aI1
aa(lp145
I0
aI0
aI0
aI0
aI0
aI1
aI0
aI0
aasI16
(lp146
(lp147
I0
aI1
aI0
aI0
aI0
aI0
aI0
aI0
aa(lp148
I1
aI0
aI1
aI0
aI0
aI0
aI0
aI1
aa(lp149
I1
aI0
aI1
aI0
aI1
aI0
aI1
aI1
aa(lp150
I0
aI1
aI1
aI0
aI0
aI1
aI0
aI0
aa(lp151
I0
aI0
aI0
aI0
aI1
aI0
aI1
aI1
aa(lp152
I1
aI0
aI1
aI1
aI1
aI0
aI0
aI0
aa(lp153
I0
aI0
aI0
aI1
aI0
aI0
aI1
aI0
aa(lp154
I0
aI0
aI0
aI0
aI1
aI1
aI1
aI0
aasI17
(lp155
(lp156
I0
aI0
aI1
aI1
aI0
aI0
aI0
aI0
aa(lp157
I1
aI0
aI1
aI0
aI0
aI1
aI1
aI0
aa(lp158
I0
aI1
aI0
aI1
aI0
aI0
aI0
aI0
aa(lp159
I1
aI0
aI0
aI1
aI1
aI0
aI0
aI0
aa(lp160
I1
aI1
aI0
aI1
aI0
aI1
aI0
aI1
aa(lp161
I1
aI0
aI1
aI0
aI0
aI0
aI1
aI0
aa(lp162
I1
aI0
aI1
aI0
aI1
aI1
aI0
aI0
aa(lp163
I1
aI0
aI1
aI0
aI0
aI0
aI1
aI0
aasI18
(lp164
(lp165
I0
aI0
aI0
aI0
aI0
aI1
aI0
aI0
aa(lp166
I1
aI0
aI0
aI0
aI1
aI0
aI0
aI0
aa(lp167
I0
aI1
aI1
aI0
aI0
aI1
aI1
aI0
aa(lp168
I0
aI0
aI0
aI0
aI0
aI0
aI0
aI0
aa(lp169
I1
aI1
aI1
aI0
aI0
aI0
aI0
aI0
aa(lp170
I1
aI0
aI1
aI0
aI0
aI0
aI0
aI0
aa(lp171
I0
aI0
aI1
aI1
aI0
aI1
aI1
aI1
aa(lp172
I0
aI0
aI1
aI1
aI1
aI0
aI1
aI0
aasI19
(lp173
(lp174
I0
aI0
aI1
aI1
aI0
aI1
aI1
aI0
aa(lp175
I0
aI0
aI0
aI0
aI1
aI0
aI1
aI1
aa(lp176
I0
aI1
aI0
aI0
aI0
aI0
aI0
aI0
aa(lp177
I1
aI0
aI1
aI0
aI1
aI1
aI0
aI0
aa(lp178
I1
aI0
aI0
aI0
aI0
aI0
aI1
aI0
aa(lp179
I0
aI0
aI0
aI0
aI0
aI0
aI1
aI0
aa(lp180
I0
aI0
aI0
aI0
aI0
aI1
aI0
aI1
aa(lp181
I0
aI0
aI0
aI0
aI1
aI0
aI0
aI0
aasI20
(lp182
(lp183
I0
aI0
aI0
aI0
aI0
aI0
aI0
aI0
aa(lp184
I0
aI0
aI0
aI0
aI0
aI1
aI0
aI0
aa(lp185
I1
aI1
aI1
aI0
aI0
aI1
aI1
aI0
aa(lp186
I0
aI1
aI1
aI1
aI0
aI0
aI1
aI1
aa(lp187
I0
aI1
aI0
aI0
aI0
aI1
aI0
aI0
aa(lp188
I1
aI1
aI0
aI0
aI0
aI0
aI0
aI1
aa(lp189
I0
aI0
aI1
aI0
aI0
aI0
aI1
aI0
aa(lp190
I1
aI0
aI1
aI0
aI0
aI0
aI1
aI0
aasI21
(lp191
(lp192
I0
aI0
aI1
aI0
aI1
aI1
aI0
aI0
aa(lp193
I0
aI1
aI0
aI1
aI0
aI0
aI0
aI0
aa(lp194
I0
aI0
aI0
aI1
aI0
aI0
aI1
aI0
aa(lp195
I0
aI0
aI1
aI0
aI0
aI0
aI0
aI0
aa(lp196
I0
aI1
aI1
aI1
aI0
aI1
aI0
aI1
aa(lp197
I1
aI0
aI0
aI1
aI0
aI0
aI1
aI0
aa(lp198
I1
aI1
aI0
aI1
aI0
aI0
aI0
aI0
aa(lp199
I0
aI0
aI0
aI0
aI1
aI0
aI0
aI0
aasI22
(lp200
(lp201
I0
aI1
aI0
aI1
aI0
aI0
aI0
aI0
aa(lp202
I0
aI0
aI0
aI0
aI0
aI1
aI1
aI0
aa(lp203
I0
aI1
aI0
aI0
aI0
aI0
aI1
aI0
aa(lp204
I0
aI1
aI1
aI0
aI0
aI0
aI1
aI0
aa(lp205
I0
aI1
aI1
aI0
aI0
aI1
aI0
aI1
aa(lp206
I0
aI0
aI0
aI0
aI0
aI0
aI1
aI0
aa(lp207
I1
aI0
aI0
aI0
aI0
aI1
aI0
aI0
aa(lp208
I1
aI1
aI0
aI0
aI1
aI0
aI1
aI0
aasI23
(lp209
(lp210
I0
aI0
aI1
aI1
aI1
aI0
aI0
aI0
aa(lp211
I0
aI0
aI1
aI1
aI0
aI0
aI0
aI0
aa(lp212
I0
aI1
aI0
aI1
aI0
aI1
aI1
aI0
aa(lp213
I0
aI0
aI0
aI0
aI1
aI1
aI0
aI0
aa(lp214
I1
aI0
aI0
aI0
aI0
aI0
aI1
aI1
aa(lp215
I0
aI1
aI0
aI0
aI1
aI1
aI0
aI0
aa(lp216
I1
aI0
aI1
aI1
aI0
aI1
aI0
aI1
aa(lp217
I1
aI0
aI0
aI1
aI0
aI1
aI0
aI0
aasI24
(lp218
(lp219
I0
aI0
aI0
aI1
aI1
aI0
aI0
aI1
aa(lp220
I0
aI1
aI0
aI1
aI1
aI0
aI0
aI1
aa(lp221
I0
aI0
aI0
aI0
aI0
aI1
aI1
aI1
aa(lp222
I0
aI0
aI1
aI0
aI1
aI1
aI0
aI0
aa(lp223
I0
aI0
aI0
aI1
aI1
aI1
aI1
aI1
aa(lp224
I0
aI1
aI0
aI1
aI1
aI1
aI1
aI1
aa(lp225
I1
aI0
aI1
aI0
aI1
aI1
aI0
aI0
aa(lp226
I1
aI0
aI1
aI0
aI0
aI1
aI1
aI0
aasI25
(lp227
(lp228
I0
aI1
aI1
aI1
aI1
aI0
aI0
aI0
aa(lp229
I0
aI0
aI0
aI1
aI1
aI1
aI0
aI1
aa(lp230
I1
aI0
aI1
aI1
aI1
aI1
aI0
aI1
aa(lp231
I0
aI1
aI0
aI0
aI0
aI0
aI1
aI0
aa(lp232
I0
aI0
aI1
aI1
aI0
aI0
aI0
aI1
aa(lp233
I1
aI1
aI0
aI0
aI0
aI0
aI0
aI1
aa(lp234
I0
aI0
aI0
aI0
aI0
aI1
aI0
aI0
aa(lp235
I0
aI0
aI0
aI0
aI1
aI1
aI1
aI0
aasI26
(lp236
(lp237
I0
aI0
aI1
aI0
aI0
aI0
aI0
aI1
aa(lp238
I1
aI0
aI1
aI0
aI0
aI0
aI0
aI1
aa(lp239
I0
aI1
aI1
aI1
aI1
aI1
aI1
aI1
aa(lp240
I1
aI0
aI0
aI1
aI0
aI0
aI0
aI1
aa(lp241
I0
aI1
aI0
aI1
aI0
aI0
aI1
aI1
aa(lp242
I1
aI0
aI0
aI0
aI1
aI0
aI0
aI0
aa(lp243
I0
aI1
aI0
aI0
aI0
aI0
aI1
aI0
aa(lp244
I0
aI1
aI0
aI0
aI0
aI0
aI1
aI0
aasI27
(lp245
(lp246
I0
aI1
aI0
aI0
aI1
aI0
aI0
aI0
aa(lp247
I0
aI1
aI0
aI0
aI0
aI0
aI0
aI0
aa(lp248
I1
aI1
aI0
aI0
aI0
aI0
aI1
aI0
aa(lp249
I0
aI0
aI0
aI1
aI0
aI1
aI1
aI1
aa(lp250
I0
aI1
aI0
aI0
aI0
aI1
aI0
aI0
aa(lp251
I0
aI1
aI1
aI0
aI0
aI1
aI0
aI1
aa(lp252
I0
aI1
aI1
aI1
aI0
aI0
aI0
aI0
aa(lp253
I0
aI0
aI0
aI0
aI0
aI0
aI0
aI0
aasI28
(lp254
(lp255
I0
aI0
aI0
aI0
aI0
aI1
aI0
aI0
aa(lp256
I1
aI1
aI1
aI1
aI0
aI1
aI1
aI0
aa(lp257
I0
aI0
aI0
aI1
aI1
aI1
aI0
aI0
aa(lp258
I1
aI1
aI0
aI0
aI0
aI0
aI1
aI1
aa(lp259
I0
aI0
aI0
aI1
aI0
aI1
aI0
aI0
aa(lp260
I0
aI0
aI1
aI0
aI1
aI0
aI1
aI1
aa(lp261
I0
aI0
aI0
aI0
aI1
aI1
aI0
aI1
aa(lp262
I0
aI0
aI0
aI0
aI0
aI0
aI1
aI0
aasI29
(lp263
(lp264
I0
aI1
aI1
aI1
aI0
aI0
aI0
aI1
aa(lp265
I1
aI0
aI0
aI1
aI0
aI0
aI0
aI1
aa(lp266
I0
aI0
aI0
aI0
aI0
aI1
aI0
aI0
aa(lp267
I0
aI0
aI0
aI1
aI0
aI0
aI0
aI0
aa(lp268
I0
aI0
aI1
aI0
aI0
aI1
aI0
aI0
aa(lp269
I1
aI1
aI0
aI0
aI0
aI0
aI0
aI0
aa(lp270
I1
aI0
aI0
aI1
aI0
aI0
aI0
aI0
aa(lp271
I1
aI1
aI0
aI0
aI0
aI1
aI1
aI0
aasI30
(lp272
(lp273
I0
aI0
aI0
aI1
aI1
aI0
aI0
aI1
aa(lp274
I0
aI0
aI0
aI0
aI0
aI0
aI0
aI1
aa(lp275
I0
aI0
aI1
aI0
aI0
aI0
aI0
aI0
aa(lp276
I1
aI0
aI0
aI1
aI0
aI1
aI1
aI0
aa(lp277
I0
aI0
aI0
aI1
aI1
aI1
aI0
aI0
aa(lp278
I1
aI0
aI0
aI0
aI0
aI0
aI1
aI1
aa(lp279
I1
aI0
aI0
aI0
aI1
aI0
aI1
aI1
aa(lp280
I0
aI0
aI0
aI1
aI0
aI1
aI1
aI0
aasI31
(lp281
(lp282
I0
aI1
aI1
aI0
aI1
aI1
aI1
aI0
aa(lp283
I1
aI0
aI0
aI1
aI1
aI1
aI0
aI0
aa(lp284
I1
aI0
aI0
aI0
aI0
aI0
aI1
aI0
aa(lp285
I0
aI0
aI0
aI1
aI1
aI0
aI1
aI0
aa(lp286
I0
aI1
aI0
aI1
aI0
aI0
aI0
aI0
aa(lp287
I1
aI1
aI0
aI0
aI0
aI1
aI0
aI0
aa(lp288
I0
aI1
aI1
aI1
aI1
aI0
aI1
aI1
aa(lp289
I0
aI0
aI0
aI0
aI0
aI0
aI0
aI0
aasI32
(lp290
(lp291
I0
aI0
aI0
aI1
aI0
aI1
aI1
aI0
aa(lp292
I1
aI1
aI0
aI1
aI1
aI1
aI1
aI0
aa(lp293
I0
aI0
aI1
aI0
aI1
aI1
aI1
aI1
aa(lp294
I1
aI0
aI0
aI1
aI1
aI0
aI1
aI1
aa(lp295
I0
aI0
aI0
aI1
aI0
aI1
aI1
aI0
aa(lp296
I0
aI0
aI1
aI1
aI1
aI0
aI1
aI0
aa(lp297
I0
aI0
aI1
aI0
aI0
aI0
aI1
aI1
aa(lp298
I1
aI1
aI0
aI0
aI1
aI1
aI0
aI0
aasI33
(lp299
(lp300
I0
aI1
aI0
aI1
aI1
aI0
aI0
aI1
aa(lp301
I0
aI1
aI0
aI0
aI0
aI0
aI0
aI0
aa(lp302
I1
aI0
aI0
aI1
aI1
aI0
aI1
aI1
aa(lp303
I0
aI0
aI1
aI0
aI0
aI1
aI0
aI1
aa(lp304
I1
aI1
aI1
aI1
aI0
aI1
aI0
aI0
aa(lp305
I0
aI0
aI0
aI1
aI0
aI0
aI0
aI0
aa(lp306
I1
aI0
aI1
aI0
aI0
aI1
aI0
aI1
aa(lp307
I0
aI1
aI0
aI0
aI1
aI0
aI0
aI0
aasI34
(lp308
(lp309
I0
aI0
aI0
aI1
aI1
aI1
aI1
aI0
aa(lp310
I1
aI1
aI1
aI1
aI1
aI0
aI0
aI0
aa(lp311
I1
aI0
aI0
aI1
aI0
aI1
aI1
aI0
aa(lp312
I1
aI0
aI0
aI1
aI0
aI0
aI1
aI1
aa(lp313
I0
aI0
aI1
aI0
aI0
aI0
aI1
aI0
aa(lp314
I0
aI0
aI0
aI0
aI0
aI0
aI1
aI0
aa(lp315
I0
aI1
aI0
aI1
aI0
aI1
aI0
aI0
aa(lp316
I1
aI1
aI0
aI1
aI0
aI0
aI1
aI0
aasI35
(lp317
(lp318
I0
aI0
aI0
aI0
aI1
aI0
aI1
aI1
aa(lp319
I1
aI0
aI0
aI0
aI0
aI0
aI0
aI0
aa(lp320
I1
aI0
aI0
aI0
aI1
aI0
aI1
aI0
aa(lp321
I1
aI0
aI0
aI0
aI0
aI0
aI0
aI1
aa(lp322
I0
aI1
aI0
aI1
aI0
aI0
aI0
aI1
aa(lp323
I0
aI0
aI1
aI0
aI1
aI0
aI1
aI0
aa(lp324
I0
aI0
aI0
aI1
aI0
aI1
aI1
aI0
aa(lp325
I0
aI0
aI1
aI0
aI1
aI0
aI0
aI0
aasI36
(lp326
(lp327
I0
aI0
aI0
aI0
aI0
aI1
aI0
aI0
aa(lp328
I1
aI0
aI0
aI0
aI0
aI1
aI0
aI0
aa(lp329
I1
aI0
aI1
aI0
aI0
aI0
aI0
aI1
aa(lp330
I1
aI1
aI0
aI1
aI1
aI0
aI0
aI0
aa(lp331
I1
aI0
aI1
aI0
aI0
aI1
aI0
aI0
aa(lp332
I0
aI1
aI1
aI0
aI0
aI1
aI0
aI1
aa(lp333
I0
aI0
aI1
aI1
aI0
aI0
aI1
aI0
aa(lp334
I1
aI0
aI0
aI1
aI1
aI1
aI1
aI0
aasI37
(lp335
(lp336
I0
aI1
aI1
aI0
aI0
aI0
aI1
aI1
aa(lp337
I0
aI0
aI0
aI0
aI0
aI0
aI1
aI1
aa(lp338
I1
aI1
aI0
aI1
aI0
aI0
aI0
aI0
aa(lp339
I1
aI0
aI0
aI0
aI0
aI1
aI1
aI0
aa(lp340
I0
aI0
aI1
aI0
aI0
aI0
aI0
aI0
aa(lp341
I0
aI0
aI0
aI1
aI1
aI0
aI1
aI1
aa(lp342
I0
aI0
aI0
aI0
aI1
aI1
aI1
aI1
aa(lp343
I1
aI1
aI0
aI0
aI0
aI1
aI0
aI0
aasI38
(lp344
(lp345
I0
aI0
aI0
aI0
aI0
aI1
aI0
aI1
aa(lp346
I0
aI1
aI0
aI0
aI0
aI1
aI1
aI0
aa(lp347
I0
aI0
aI0
aI0
aI0
aI1
aI0
aI0
aa(lp348
I0
aI0
aI1
aI0
aI0
aI0
aI1
aI0
aa(lp349
I1
aI0
aI0
aI0
aI0
aI0
aI0
aI1
aa(lp350
I0
aI0
aI1
aI0
aI1
aI0
aI1
aI0
aa(lp351
I0
aI1
aI1
aI0
aI1
aI1
aI0
aI0
aa(lp352
I1
aI0
aI1
aI1
aI1
aI1
aI1
aI0
aasI39
(lp353
(lp354
I0
aI1
aI0
aI0
aI1
aI1
aI0
aI0
aa(lp355
I0
aI0
aI0
aI0
aI0
aI1
aI0
aI0
aa(lp356
I0
aI1
aI1
aI0
aI0
aI1
aI1
aI0
aa(lp357
I1
aI0
aI1
aI0
aI1
aI1
aI0
aI1
aa(lp358
I1
aI0
aI1
aI0
aI0
aI0
aI1
aI1
aa(lp359
I0
aI0
aI1
aI0
aI1
aI0
aI0
aI1
aa(lp360
I1
aI0
aI0
aI0
aI1
aI0
aI0
aI1
aa(lp361
I0
aI0
aI0
aI1
aI1
aI1
aI1
aI0
aasI40
(lp362
(lp363
I0
aI1
aI1
aI0
aI1
aI0
aI1
aI0
aa(lp364
I0
aI1
aI1
aI1
aI0
aI1
aI1
aI0
aa(lp365
I1
aI1
aI1
aI1
aI0
aI1
aI0
aI1
aa(lp366
I1
aI0
aI1
aI0
aI1
aI1
aI1
aI0
aa(lp367
I0
aI0
aI0
aI1
aI1
aI0
aI0
aI0
aa(lp368
I1
aI0
aI0
aI0
aI0
aI0
aI1
aI1
aa(lp369
I0
aI0
aI0
aI1
aI1
aI0
aI1
aI1
aa(lp370
I1
aI0
aI1
aI0
aI0
aI0
aI1
aI0
aasI41
(lp371
(lp372
I0
aI0
aI1
aI1
aI0
aI0
aI0
aI1
aa(lp373
I0
aI1
aI0
aI0
aI0
aI1
aI0
aI0
aa(lp374
I1
aI0
aI1
aI0
aI0
aI0
aI1
aI0
aa(lp375
I0
aI0
aI0
aI1
aI0
aI1
aI0
aI1
aa(lp376
I1
aI0
aI0
aI1
aI0
aI1
aI0
aI0
aa(lp377
I1
aI0
aI0
aI0
aI1
aI1
aI0
aI0
aa(lp378
I0
aI0
aI0
aI1
aI0
aI0
aI0
aI0
aa(lp379
I0
aI1
aI0
aI0
aI0
aI0
aI1
aI0
aasI42
(lp380
(lp381
I0
aI0
aI0
aI0
aI0
aI1
aI0
aI0
aa(lp382
I1
aI1
aI1
aI1
aI0
aI1
aI1
aI0
aa(lp383
I0
aI0
aI0
aI1
aI0
aI0
aI0
aI1
aa(lp384
I0
aI0
aI0
aI0
aI1
aI0
aI0
aI1
aa(lp385
I0
aI1
aI1
aI0
aI1
aI1
aI1
aI0
aa(lp386
I0
aI0
aI0
aI0
aI0
aI1
aI1
aI1
aa(lp387
I1
aI0
aI1
aI0
aI0
aI0
aI1
aI1
aa(lp388
I0
aI0
aI0
aI0
aI0
aI0
aI0
aI0
aasI43
(lp389
(lp390
I0
aI0
aI0
aI0
aI0
aI1
aI0
aI1
aa(lp391
I0
aI0
aI0
aI1
aI1
aI1
aI0
aI1
aa(lp392
I0
aI0
aI1
aI1
aI0
aI1
aI0
aI0
aa(lp393
I0
aI0
aI1
aI0
aI1
aI1
aI0
aI0
aa(lp394
I1
aI1
aI0
aI0
aI1
aI1
aI1
aI0
aa(lp395
I0
aI1
aI0
aI0
aI1
aI1
aI0
aI1
aa(lp396
I1
aI0
aI1
aI0
aI0
aI1
aI0
aI1
aa(lp397
I0
aI0
aI0
aI0
aI1
aI1
aI0
aI0
aasI44
(lp398
(lp399
I0
aI1
aI0
aI0
aI0
aI1
aI1
aI0
aa(lp400
I1
aI0
aI0
aI0
aI0
aI0
aI1
aI1
aa(lp401
I0
aI1
aI0
aI0
aI0
aI1
aI0
aI0
aa(lp402
I1
aI0
aI0
aI0
aI0
aI0
aI1
aI0
aa(lp403
I1
aI1
aI1
aI0
aI1
aI1
aI0
aI0
aa(lp404
I0
aI1
aI1
aI1
aI1
aI1
aI1
aI1
aa(lp405
I0
aI0
aI1
aI1
aI0
aI0
aI1
aI0
aa(lp406
I1
aI1
aI0
aI0
aI1
aI0
aI0
aI0
aasI45
(lp407
(lp408
I0
aI0
aI1
aI0
aI1
aI0
aI0
aI1
aa(lp409
I0
aI0
aI0
aI0
aI1
aI0
aI1
aI1
aa(lp410
I1
aI0
aI0
aI1
aI1
aI0
aI0
aI1
aa(lp411
I0
aI1
aI1
aI1
aI0
aI1
aI0
aI1
aa(lp412
I0
aI0
aI1
aI1
aI0
aI0
aI0
aI1
aa(lp413
I1
aI1
aI0
aI1
aI0
aI1
aI1
aI0
aa(lp414
I0
aI1
aI0
aI0
aI0
aI1
aI0
aI1
aa(lp415
I1
aI0
aI1
aI0
aI1
aI0
aI1
aI0
aasI46
(lp416
(lp417
I0
aI0
aI1
aI0
aI0
aI0
aI1
aI0
aa(lp418
I0
aI1
aI0
aI0
aI1
aI1
aI0
aI1
aa(lp419
I1
aI1
aI1
aI1
aI0
aI0
aI1
aI0
aa(lp420
I0
aI1
aI1
aI0
aI1
aI1
aI1
aI1
aa(lp421
I0
aI0
aI0
aI1
aI0
aI1
aI1
aI1
aa(lp422
I0
aI0
aI1
aI0
aI1
aI0
aI1
aI0
aa(lp423
I1
aI1
aI0
aI0
aI0
aI1
aI1
aI0
aa(lp424
I1
aI1
aI0
aI0
aI1
aI0
aI1
aI0
aasI47
(lp425
(lp426
I0
aI0
aI1
aI1
aI0
aI1
aI1
aI1
aa(lp427
I0
aI0
aI0
aI1
aI1
aI0
aI0
aI0
aa(lp428
I1
aI0
aI0
aI1
aI0
aI0
aI0
aI0
aa(lp429
I1
aI0
aI1
aI0
aI0
aI1
aI1
aI0
aa(lp430
I0
aI1
aI0
aI1
aI1
aI0
aI0
aI0
aa(lp431
I0
aI1
aI1
aI1
aI1
aI1
aI0
aI1
aa(lp432
I1
aI0
aI0
aI0
aI1
aI0
aI0
aI1
aa(lp433
I0
aI1
aI0
aI0
aI1
aI1
aI1
aI0
aasI48
(lp434
(lp435
I0
aI1
aI1
aI1
aI0
aI1
aI1
aI1
aa(lp436
I0
aI0
aI1
aI0
aI1
aI0
aI0
aI1
aa(lp437
I1
aI1
aI0
aI0
aI0
aI0
aI0
aI0
aa(lp438
I0
aI0
aI0
aI0
aI1
aI0
aI0
aI0
aa(lp439
I1
aI0
aI1
aI0
aI0
aI0
aI1
aI1
aa(lp440
I1
aI0
aI0
aI1
aI0
aI0
aI0
aI1
aa(lp441
I1
aI1
aI0
aI0
aI1
aI0
aI0
aI1
aa(lp442
I0
aI1
aI0
aI0
aI1
aI1
aI0
aI0
aasI49
(lp443
(lp444
I0
aI1
aI0
aI0
aI0
aI0
aI0
aI1
aa(lp445
I1
aI1
aI1
aI0
aI0
aI1
aI0
aI1
aa(lp446
I1
aI1
aI0
aI1
aI0
aI1
aI0
aI0
aa(lp447
I1
aI1
aI0
aI1
aI1
aI1
aI1
aI0
aa(lp448
I0
aI0
aI0
aI0
aI0
aI0
aI1
aI0
aa(lp449
I0
aI1
aI0
aI1
aI0
aI0
aI0
aI0
aa(lp450
I1
aI0
aI0
aI0
aI0
aI0
aI0
aI1
aa(lp451
I0
aI1
aI1
aI1
aI1
aI0
aI1
aI0
aasI50
(lp452
(lp453
I0
aI0
aI0
aI1
aI1
aI0
aI1
aI0
aa(lp454
I1
aI0
aI1
aI0
aI0
aI0
aI0
aI0
aa(lp455
I1
aI0
aI1
aI1
aI0
aI1
aI0
aI0
aa(lp456
I0
aI0
aI0
aI1
aI0
aI1
aI1
aI1
aa(lp457
I0
aI0
aI0
aI1
aI0
aI0
aI0
aI0
aa(lp458
I1
aI0
aI1
aI1
aI0
aI1
aI1
aI0
aa(lp459
I0
aI0
aI0
aI1
aI1
aI0
aI0
aI0
aa(lp460
I0
aI0
aI0
aI1
aI0
aI1
aI1
aI0
aasI51
(lp461
(lp462
I0
aI1
aI1
aI1
aI0
aI0
aI1
aI1
aa(lp463
I0
aI0
aI1
aI1
aI1
aI0
aI0
aI1
aa(lp464
I1
aI1
aI1
aI1
aI0
aI0
aI0
aI0
aa(lp465
I1
aI0
aI0
aI0
aI0
aI0
aI0
aI0
aa(lp466
I0
aI0
aI1
aI1
aI1
aI1
aI0
aI1
aa(lp467
I0
aI0
aI0
aI0
aI0
aI0
aI1
aI1
aa(lp468
I1
aI1
aI0
aI1
aI0
aI0
aI0
aI1
aa(lp469
I1
aI0
aI1
aI0
aI0
aI0
aI0
aI0
aasI52
(lp470
(lp471
I0
aI0
aI1
aI1
aI0
aI0
aI0
aI0
aa(lp472
I1
aI1
aI1
aI0
aI0
aI0
aI1
aI0
aa(lp473
I1
aI0
aI1
aI0
aI0
aI1
aI0
aI0
aa(lp474
I1
aI1
aI1
aI0
aI0
aI1
aI1
aI0
aa(lp475
I0
aI1
aI0
aI0
aI1
aI0
aI0
aI1
aa(lp476
I1
aI0
aI1
aI0
aI0
aI1
aI1
aI0
aa(lp477
I0
aI1
aI1
aI0
aI1
aI0
aI0
aI0
aa(lp478
I1
aI0
aI0
aI0
aI1
aI0
aI0
aI0
aasI53
(lp479
(lp480
I0
aI0
aI0
aI1
aI1
aI1
aI0
aI1
aa(lp481
I1
aI0
aI0
aI1
aI0
aI0
aI0
aI0
aa(lp482
I1
aI0
aI0
aI0
aI1
aI0
aI1
aI0
aa(lp483
I0
aI1
aI1
aI1
aI0
aI1
aI0
aI1
aa(lp484
I0
aI0
aI0
aI1
aI1
aI1
aI0
aI0
aa(lp485
I0
aI0
aI0
aI0
aI1
aI0
aI1
aI0
aa(lp486
I1
aI0
aI1
aI0
aI1
aI0
aI0
aI0
aa(lp487
I1
aI0
aI0
aI0
aI0
aI0
aI0
aI0
aasI54
(lp488
(lp489
I0
aI0
aI1
aI0
aI1
aI1
aI0
aI0
aa(lp490
I0
aI0
aI1
aI0
aI1
aI1
aI0
aI1
aa(lp491
I0
aI1
aI1
aI0
aI0
aI1
aI1
aI0
aa(lp492
I0
aI0
aI1
aI0
aI1
aI0
aI1
aI1
aa(lp493
I1
aI1
aI1
aI0
aI1
aI1
aI0
aI0
aa(lp494
I1
aI0
aI0
aI1
aI0
aI0
aI0
aI1
aa(lp495
I0
aI0
aI1
aI0
aI0
aI1
aI0
aI0
aa(lp496
I1
aI0
aI1
aI1
aI0
aI0
aI0
aI0
aasI55
(lp497
(lp498
I0
aI1
aI1
aI0
aI0
aI0
aI0
aI0
aa(lp499
I0
aI0
aI1
aI0
aI0
aI0
aI0
aI0
aa(lp500
I0
aI0
aI0
aI0
aI1
aI1
aI0
aI0
aa(lp501
I0
aI1
aI0
aI0
aI0
aI1
aI0
aI1
aa(lp502
I1
aI1
aI0
aI1
aI0
aI1
aI0
aI1
aa(lp503
I0
aI0
aI0
aI1
aI0
aI0
aI0
aI0
aa(lp504
I0
aI1
aI0
aI0
aI0
aI1
aI1
aI1
aa(lp505
I0
aI0
aI0
aI1
aI0
aI0
aI1
aI0
aasI56
(lp506
(lp507
I0
aI1
aI0
aI0
aI0
aI0
aI1
aI0
aa(lp508
I0
aI0
aI0
aI1
aI1
aI1
aI1
aI0
aa(lp509
I1
aI0
aI1
aI1
aI0
aI0
aI1
aI0
aa(lp510
I0
aI1
aI1
aI0
aI0
aI1
aI0
aI1
aa(lp511
I0
aI0
aI0
aI1
aI0
aI0
aI1
aI1
aa(lp512
I0
aI0
aI0
aI0
aI0
aI1
aI0
aI1
aa(lp513
I1
aI1
aI0
aI1
aI0
aI1
aI0
aI1
aa(lp514
I0
aI1
aI1
aI1
aI0
aI0
aI0
aI0
aasI57
(lp515
(lp516
I0
aI0
aI0
aI0
aI1
aI0
aI0
aI0
aa(lp517
I0
aI1
aI0
aI1
aI0
aI1
aI0
aI0
aa(lp518
I1
aI0
aI0
aI1
aI0
aI1
aI0
aI0
aa(lp519
I0
aI1
aI1
aI0
aI1
aI1
aI1
aI1
aa(lp520
I0
aI1
aI0
aI0
aI0
aI0
aI0
aI0
aa(lp521
I1
aI0
aI1
aI0
aI1
aI1
aI0
aI0
aa(lp522
I0
aI1
aI1
aI1
aI1
aI1
aI0
aI0
aa(lp523
I0
aI0
aI0
aI0
aI0
aI1
aI0
aI0
aasI58
(lp524
(lp525
I0
aI0
aI1
aI1
aI1
aI0
aI1
aI1
aa(lp526
I0
aI1
aI0
aI0
aI0
aI1
aI0
aI1
aa(lp527
I1
aI0
aI1
aI1
aI1
aI0
aI1
aI0
aa(lp528
I1
aI0
aI0
aI0
aI1
aI1
aI0
aI1
aa(lp529
I1
aI1
aI0
aI1
aI1
aI0
aI0
aI0
aa(lp530
I0
aI0
aI0
aI0
aI1
aI1
aI1
aI0
aa(lp531
I1
aI1
aI1
aI1
aI1
aI1
aI0
aI0
aa(lp532
I0
aI1
aI1
aI0
aI0
aI0
aI0
aI0
aasI59
(lp533
(lp534
I0
aI1
aI1
aI1
aI0
aI1
aI0
aI0
aa(lp535
I0
aI0
aI0
aI0
aI0
aI0
aI1
aI1
aa(lp536
I1
aI0
aI1
aI0
aI0
aI0
aI1
aI0
aa(lp537
I1
aI1
aI1
aI0
aI1
aI1
aI1
aI1
aa(lp538
I0
aI0
aI0
aI0
aI1
aI0
aI1
aI1
aa(lp539
I0
aI0
aI0
aI1
aI0
aI0
aI1
aI0
aa(lp540
I0
aI0
aI1
aI1
aI0
aI0
aI1
aI1
aa(lp541
I0
aI0
aI0
aI1
aI1
aI0
aI0
aI0
aasI60
(lp542
(lp543
I0
aI1
aI1
aI1
aI0
aI0
aI0
aI0
aa(lp544
I1
aI0
aI0
aI0
aI0
aI0
aI1
aI1
aa(lp545
I0
aI1
aI0
aI0
aI1
aI0
aI1
aI1
aa(lp546
I1
aI1
aI0
aI0
aI1
aI0
aI0
aI0
aa(lp547
I1
aI1
aI1
aI0
aI0
aI0
aI0
aI0
aa(lp548
I1
aI0
aI0
aI0
aI1
aI1
aI1
aI0
aa(lp549
I1
aI1
aI1
aI1
aI1
aI1
aI1
aI1
aa(lp550
I0
aI0
aI1
aI0
aI0
aI0
aI1
aI0
aasI61
(lp551
(lp552
I0
aI0
aI1
aI1
aI1
aI1
aI0
aI1
aa(lp553
I0
aI1
aI0
aI1
aI1
aI1
aI1
aI1
aa(lp554
I0
aI1
aI1
aI0
aI1
aI1
aI1
aI0
aa(lp555
I1
aI0
aI0
aI0
aI1
aI1
aI1
aI0
aa(lp556
I1
aI0
aI0
aI0
aI1
aI0
aI1
aI1
aa(lp557
I0
aI0
aI1
aI0
aI1
aI0
aI0
aI0
aa(lp558
I1
aI1
aI1
aI0
aI0
aI0
aI0
aI1
aa(lp559
I0
aI1
aI0
aI0
aI1
aI0
aI1
aI0
aasI62
(lp560
(lp561
I0
aI1
aI1
aI1
aI0
aI1
aI1
aI0
aa(lp562
I0
aI0
aI1
aI0
aI0
aI0
aI0
aI0
aa(lp563
I1
aI1
aI0
aI0
aI1
aI0
aI1
aI0
aa(lp564
I0
aI1
aI0
aI0
aI1
aI0
aI1
aI0
aa(lp565
I1
aI0
aI0
aI0
aI0
aI1
aI0
aI0
aa(lp566
I1
aI0
aI0
aI0
aI1
aI1
aI0
aI0
aa(lp567
I1
aI1
aI0
aI0
aI0
aI0
aI0
aI1
aa(lp568
I1
aI1
aI0
aI0
aI1
aI1
aI0
aI0
aasI63
(lp569
(lp570
I0
aI0
aI1
aI1
aI0
aI1
aI0
aI0
aa(lp571
I0
aI1
aI1
aI0
aI0
aI1
aI0
aI1
aa(lp572
I1
aI0
aI0
aI1
aI1
aI0
aI0
aI0
aa(lp573
I1
aI0
aI1
aI0
aI0
aI0
aI0
aI0
aa(lp574
I1
aI0
aI0
aI1
aI0
aI0
aI0
aI1
aa(lp575
I0
aI0
aI0
aI0
aI1
aI1
aI0
aI1
aa(lp576
I1
aI1
aI0
aI1
aI0
aI0
aI1
aI0
aa(lp577
I1
aI1
aI0
aI0
aI0
aI1
aI0
aI0
aasI64
(lp578
(lp579
I0
aI0
aI0
aI1
aI0
aI1
aI0
aI1
aa(lp580
I1
aI1
aI1
aI1
aI0
aI0
aI0
aI1
aa(lp581
I0
aI0
aI1
aI0
aI1
aI0
aI0
aI0
aa(lp582
I0
aI0
aI1
aI0
aI0
aI1
aI1
aI0
aa(lp583
I1
aI0
aI0
aI1
aI1
aI1
aI1
aI0
aa(lp584
I1
aI0
aI0
aI1
aI0
aI0
aI0
aI1
aa(lp585
I0
aI1
aI0
aI1
aI0
aI1
aI1
aI0
aa(lp586
I1
aI0
aI0
aI0
aI0
aI1
aI1
aI0
aasI65
(lp587
(lp588
I0
aI1
aI0
aI0
aI0
aI0
aI1
aI0
aa(lp589
I0
aI0
aI0
aI0
aI1
aI1
aI0
aI1
aa(lp590
I0
aI1
aI1
aI0
aI0
aI0
aI0
aI0
aa(lp591
I0
aI1
aI0
aI1
aI0
aI0
aI0
aI0
aa(lp592
I0
aI0
aI0
aI1
aI0
aI1
aI1
aI0
aa(lp593
I1
aI0
aI0
aI1
aI0
aI1
aI0
aI0
aa(lp594
I0
aI1
aI1
aI0
aI1
aI0
aI0
aI1
aa(lp595
I0
aI1
aI1
aI0
aI0
aI0
aI1
aI0
aasI66
(lp596
(lp597
I0
aI1
aI0
aI0
aI1
aI1
aI1
aI0
aa(lp598
I1
aI0
aI1
aI0
aI1
aI1
aI1
aI0
aa(lp599
I0
aI0
aI1
aI1
aI0
aI0
aI1
aI0
aa(lp600
I0
aI1
aI1
aI1
aI0
aI1
aI1
aI0
aa(lp601
I1
aI0
aI0
aI0
aI1
aI1
aI0
aI0
aa(lp602
I0
aI0
aI0
aI1
aI1
aI0
aI1
aI0
aa(lp603
I1
aI0
aI1
aI0
aI0
aI0
aI1
aI1
aa(lp604
I0
aI1
aI1
aI1
aI0
aI0
aI0
aI0
aasI67
(lp605
(lp606
I0
aI0
aI1
aI1
aI1
aI0
aI0
aI1
aa(lp607
I0
aI0
aI1
aI0
aI0
aI1
aI1
aI1
aa(lp608
I0
aI0
aI0
aI1
aI0
aI0
aI0
aI0
aa(lp609
I1
aI1
aI1
aI1
aI0
aI0
aI0
aI1
aa(lp610
I1
aI1
aI0
aI0
aI0
aI0
aI1
aI1
aa(lp611
I0
aI0
aI1
aI0
aI1
aI1
aI0
aI1
aa(lp612
I1
aI0
aI0
aI0
aI0
aI0
aI0
aI0
aa(lp613
I1
aI0
aI0
aI1
aI0
aI1
aI0
aI0
aasI68
(lp614
(lp615
I0
aI1
aI0
aI0
aI0
aI0
aI0
aI0
aa(lp616
I1
aI0
aI1
aI0
aI0
aI0
aI0
aI0
aa(lp617
I0
aI1
aI0
aI0
aI1
aI0
aI0
aI0
aa(lp618
I1
aI1
aI1
aI1
aI0
aI0
aI1
aI0
aa(lp619
I1
aI0
aI0
aI0
aI0
aI0
aI0
aI1
aa(lp620
I0
aI0
aI0
aI1
aI0
aI1
aI0
aI0
aa(lp621
I0
aI1
aI0
aI0
aI1
aI0
aI0
aI0
aa(lp622
I0
aI1
aI0
aI1
aI0
aI1
aI1
aI0
aasI69
(lp623
(lp624
I0
aI1
aI0
aI0
aI0
aI0
aI0
aI0
aa(lp625
I0
aI1
aI0
aI1
aI1
aI0
aI0
aI0
aa(lp626
I0
aI0
aI1
aI0
aI1
aI0
aI0
aI1
aa(lp627
I1
aI0
aI1
aI0
aI0
aI0
aI1
aI0
aa(lp628
I0
aI1
aI0
aI0
aI0
aI0
aI0
aI0
aa(lp629
I1
aI1
aI1
aI0
aI0
aI1
aI0
aI1
aa(lp630
I1
aI1
aI1
aI0
aI1
aI0
aI1
aI0
aa(lp631
I0
aI1
aI0
aI0
aI1
aI1
aI0
aI0
aasI70
(lp632
(lp633
I0
aI1
aI0
aI0
aI0
aI0
aI0
aI1
aa(lp634
I0
aI0
aI1
aI0
aI0
aI0
aI0
aI1
aa(lp635
I1
aI1
aI0
aI1
aI1
aI0
aI0
aI0
aa(lp636
I1
aI1
aI0
aI1
aI1
aI1
aI1
aI0
aa(lp637
I1
aI0
aI0
aI0
aI1
aI0
aI1
aI0
aa(lp638
I1
aI1
aI1
aI1
aI1
aI1
aI0
aI0
aa(lp639
I1
aI1
aI0
aI0
aI1
aI1
aI0
aI0
aa(lp640
I0
aI0
aI1
aI0
aI0
aI0
aI1
aI0
aasI71
(lp641
(lp642
I0
aI0
aI1
aI1
aI0
aI1
aI1
aI1
aa(lp643
I1
aI0
aI1
aI0
aI0
aI1
aI0
aI1
aa(lp644
I1
aI0
aI0
aI0
aI1
aI0
aI0
aI1
aa(lp645
I0
aI0
aI0
aI0
aI0
aI0
aI0
aI1
aa(lp646
I0
aI1
aI0
aI0
aI0
aI1
aI1
aI1
aa(lp647
I0
aI0
aI0
aI0
aI0
aI0
aI1
aI0
aa(lp648
I0
aI0
aI0
aI0
aI1
aI0
aI0
aI1
aa(lp649
I0
aI1
aI0
aI0
aI0
aI0
aI1
aI0
aasI72
(lp650
(lp651
I0
aI1
aI0
aI1
aI1
aI0
aI1
aI1
aa(lp652
I0
aI1
aI1
aI0
aI0
aI0
aI1
aI1
aa(lp653
I0
aI1
aI1
aI0
aI0
aI1
aI1
aI1
aa(lp654
I0
aI0
aI0
aI0
aI1
aI1
aI1
aI1
aa(lp655
I0
aI0
aI0
aI1
aI0
aI1
aI1
aI1
aa(lp656
I1
aI1
aI0
aI0
aI1
aI0
aI1
aI0
aa(lp657
I1
aI1
aI0
aI0
aI1
aI1
aI0
aI0
aa(lp658
I0
aI0
aI0
aI0
aI0
aI0
aI1
aI0
aasI73
(lp659
(lp660
I0
aI0
aI1
aI0
aI0
aI1
aI0
aI0
aa(lp661
I0
aI0
aI0
aI1
aI0
aI0
aI1
aI1
aa(lp662
I1
aI1
aI0
aI0
aI0
aI0
aI0
aI0
aa(lp663
I1
aI1
aI0
aI1
aI0
aI0
aI0
aI0
aa(lp664
I0
aI1
aI0
aI1
aI0
aI0
aI1
aI1
aa(lp665
I0
aI1
aI1
aI0
aI0
aI0
aI1
aI0
aa(lp666
I0
aI0
aI1
aI1
aI1
aI1
aI1
aI1
aa(lp667
I0
aI1
aI1
aI0
aI1
aI0
aI0
aI0
aasI74
(lp668
(lp669
I0
aI1
aI0
aI0
aI0
aI0
aI1
aI0
aa(lp670
I1
aI1
aI1
aI0
aI0
aI1
aI0
aI0
aa(lp671
I0
aI0
aI0
aI0
aI0
aI1
aI0
aI0
aa(lp672
I0
aI1
aI1
aI0
aI0
aI1
aI1
aI0
aa(lp673
I0
aI1
aI1
aI0
aI0
aI1
aI1
aI0
aa(lp674
I1
aI1
aI0
aI0
aI0
aI0
aI1
aI1
aa(lp675
I0
aI1
aI1
aI0
aI1
aI1
aI0
aI0
aa(lp676
I0
aI0
aI0
aI1
aI1
aI0
aI0
aI0
aasI75
(lp677
(lp678
I0
aI1
aI0
aI0
aI1
aI0
aI1
aI0
aa(lp679
I1
aI1
aI0
aI0
aI0
aI1
aI1
aI0
aa(lp680
I1
aI0
aI1
aI1
aI1
aI0
aI1
aI0
aa(lp681
I1
aI0
aI0
aI0
aI1
aI1
aI1
aI1
aa(lp682
I1
aI1
aI0
aI0
aI0
aI1
aI1
aI0
aa(lp683
I0
aI0
aI1
aI1
aI1
aI0
aI0
aI0
aa(lp684
I1
aI1
aI1
aI1
aI0
aI0
aI0
aI1
aa(lp685
I1
aI0
aI0
aI1
aI0
aI0
aI0
aI0
aasI76
(lp686
(lp687
I0
aI0
aI0
aI1
aI1
aI0
aI1
aI0
aa(lp688
I0
aI1
aI0
aI0
aI1
aI0
aI0
aI0
aa(lp689
I0
aI0
aI1
aI1
aI1
aI0
aI0
aI0
aa(lp690
I0
aI0
aI0
aI0
aI1
aI0
aI1
aI0
aa(lp691
I1
aI0
aI1
aI1
aI1
aI1
aI0
aI1
aa(lp692
I0
aI1
aI1
aI0
aI1
aI0
aI1
aI0
aa(lp693
I0
aI1
aI0
aI1
aI0
aI0
aI1
aI0
aa(lp694
I1
aI0
aI1
aI1
aI0
aI1
aI0
aI0
aasI77
(lp695
(lp696
I0
aI1
aI0
aI0
aI1
aI0
aI1
aI0
aa(lp697
I0
aI0
aI0
aI1
aI0
aI1
aI0
aI0
aa(lp698
I0
aI1
aI0
aI1
aI1
aI0
aI0
aI1
aa(lp699
I1
aI0
aI0
aI0
aI0
aI1
aI1
aI1
aa(lp700
I1
aI0
aI1
aI1
aI0
aI0
aI1
aI0
aa(lp701
I1
aI1
aI0
aI0
aI0
aI0
aI0
aI1
aa(lp702
I1
aI0
aI0
aI0
aI0
aI1
aI1
aI1
aa(lp703
I0
aI1
aI0
aI0
aI0
aI1
aI0
aI0
aasI78
(lp704
(lp705
I0
aI1
aI1
aI0
aI1
aI1
aI0
aI0
aa(lp706
I1
aI0
aI0
aI0
aI1
aI1
aI0
aI1
aa(lp707
I1
aI1
aI0
aI1
aI1
aI0
aI1
aI0
aa(lp708
I0
aI0
aI1
aI0
aI1
aI0
aI1
aI0
aa(lp709
I0
aI0
aI0
aI0
aI1
aI0
aI1
aI1
aa(lp710
I1
aI1
aI1
aI0
aI0
aI0
aI1
aI0
aa(lp711
I1
aI1
aI0
aI1
aI0
aI0
aI0
aI1
aa(lp712
I1
aI1
aI0
aI0
aI0
aI0
aI1
aI0
aasI79
(lp713
(lp714
I0
aI1
aI0
aI1
aI0
aI1
aI1
aI0
aa(lp715
I1
aI1
aI1
aI1
aI0
aI0
aI0
aI1
aa(lp716
I1
aI0
aI1
aI0
aI1
aI1
aI1
aI1
aa(lp717
I0
aI0
aI1
aI1
aI1
aI1
aI1
aI0
aa(lp718
I1
aI0
aI1
aI1
aI0
aI1
aI0
aI1
aa(lp719
I0
aI0
aI0
aI0
aI0
aI0
aI0
aI1
aa(lp720
I0
aI0
aI1
aI0
aI1
aI0
aI1
aI1
aa(lp721
I1
aI1
aI0
aI0
aI1
aI1
aI1
aI0
aasI80
(lp722
(lp723
I0
aI0
aI0
aI1
aI0
aI0
aI0
aI1
aa(lp724
I0
aI1
aI0
aI0
aI0
aI0
aI0
aI0
aa(lp725
I0
aI1
aI0
aI1
aI0
aI1
aI0
aI0
aa(lp726
I1
aI1
aI0
aI0
aI0
aI1
aI1
aI1
aa(lp727
I1
aI0
aI0
aI1
aI0
aI1
aI0
aI1
aa(lp728
I1
aI0
aI0
aI0
aI1
aI0
aI1
aI1
aa(lp729
I1
aI1
aI0
aI0
aI0
aI1
aI0
aI1
aa(lp730
I0
aI0
aI0
aI0
aI1
aI1
aI1
aI0
aasI81
(lp731
(lp732
I0
aI1
aI0
aI0
aI0
aI0
aI1
aI0
aa(lp733
I1
aI1
aI1
aI1
aI1
aI1
aI1
aI0
aa(lp734
I1
aI1
aI1
aI1
aI1
aI0
aI0
aI1
aa(lp735
I1
aI0
aI1
aI0
aI1
aI1
aI1
aI1
aa(lp736
I0
aI1
aI0
aI1
aI1
aI0
aI1
aI1
aa(lp737
I0
aI0
aI0
aI0
aI1
aI0
aI1
aI1
aa(lp738
I1
aI0
aI0
aI1
aI0
aI1
aI1
aI0
aa(lp739
I1
aI0
aI1
aI1
aI1
aI1
aI1
aI0
aasI82
(lp740
(lp741
I0
aI0
aI1
aI1
aI1
aI0
aI1
aI1
aa(lp742
I0
aI0
aI0
aI1
aI0
aI0
aI0
aI0
aa(lp743
I0
aI1
aI1
aI0
aI1
aI1
aI1
aI0
aa(lp744
I1
aI1
aI0
aI0
aI0
aI1
aI0
aI0
aa(lp745
I0
aI0
aI0
aI1
aI0
aI0
aI0
aI0
aa(lp746
I0
aI1
aI1
aI1
aI0
aI1
aI1
aI1
aa(lp747
I0
aI1
aI1
aI0
aI1
aI0
aI1
aI0
aa(lp748
I0
aI1
aI1
aI0
aI0
aI0
aI0
aI0
aasI83
(lp749
(lp750
I0
aI1
aI1
aI1
aI1
aI0
aI1
aI0
aa(lp751
I0
aI0
aI0
aI0
aI1
aI1
aI1
aI0
aa(lp752
I1
aI1
aI1
aI1
aI1
aI0
aI1
aI0
aa(lp753
I1
aI0
aI0
aI1
aI0
aI1
aI1
aI0
aa(lp754
I0
aI0
aI1
aI1
aI1
aI1
aI0
aI1
aa(lp755
I0
aI1
aI0
aI1
aI0
aI0
aI0
aI0
aa(lp756
I0
aI0
aI1
aI0
aI0
aI1
aI1
aI0
aa(lp757
I0
aI0
aI1
aI0
aI1
aI0
aI0
aI0
aasI84
(lp758
(lp759
I0
aI1
aI0
aI0
aI1
aI0
aI1
aI0
aa(lp760
I1
aI0
aI0
aI0
aI1
aI0
aI0
aI1
aa(lp761
I0
aI1
aI0
aI1
aI0
aI1
aI1
aI1
aa(lp762
I1
aI0
aI0
aI0
aI0
aI0
aI1
aI0
aa(lp763
I0
aI0
aI1
aI0
aI1
aI1
aI0
aI1
aa(lp764
I0
aI1
aI0
aI1
aI0
aI1
aI1
aI0
aa(lp765
I1
aI0
aI1
aI1
aI0
aI0
aI1
aI0
aa(lp766
I0
aI1
aI1
aI0
aI1
aI1
aI0
aI0
aasI85
(lp767
(lp768
I0
aI1
aI0
aI0
aI0
aI0
aI1
aI0
aa(lp769
I0
aI0
aI0
aI1
aI0
aI0
aI1
aI1
aa(lp770
I1
aI0
aI0
aI0
aI0
aI1
aI0
aI1
aa(lp771
I0
aI0
aI1
aI0
aI1
aI1
aI0
aI1
aa(lp772
I0
aI0
aI0
aI0
aI0
aI1
aI0
aI1
aa(lp773
I0
aI1
aI0
aI0
aI0
aI0
aI1
aI1
aa(lp774
I0
aI1
aI0
aI1
aI1
aI1
aI1
aI1
aa(lp775
I0
aI0
aI1
aI1
aI0
aI1
aI1
aI0
aasI86
(lp776
(lp777
I0
aI0
aI0
aI1
aI1
aI1
aI0
aI0
aa(lp778
I1
aI1
aI0
aI0
aI0
aI0
aI0
aI1
aa(lp779
I0
aI0
aI0
aI1
aI0
aI0
aI1
aI1
aa(lp780
I1
aI0
aI0
aI1
aI0
aI0
aI1
aI0
aa(lp781
I0
aI1
aI0
aI1
aI0
aI0
aI1
aI0
aa(lp782
I1
aI0
aI0
aI0
aI1
aI0
aI1
aI0
aa(lp783
I0
aI0
aI0
aI0
aI1
aI0
aI1
aI1
aa(lp784
I0
aI0
aI0
aI1
aI1
aI1
aI0
aI0
aasI87
(lp785
(lp786
I0
aI1
aI1
aI1
aI0
aI0
aI1
aI0
aa(lp787
I0
aI1
aI0
aI1
aI1
aI1
aI0
aI0
aa(lp788
I0
aI0
aI1
aI1
aI0
aI0
aI0
aI0
aa(lp789
I0
aI0
aI0
aI1
aI0
aI0
aI1
aI0
aa(lp790
I1
aI0
aI1
aI0
aI0
aI1
aI0
aI0
aa(lp791
I1
aI1
aI1
aI0
aI0
aI0
aI1
aI1
aa(lp792
I0
aI0
aI0
aI1
aI0
aI0
aI0
aI0
aa(lp793
I1
aI0
aI1
aI0
aI1
aI1
aI1
aI0
aasI88
(lp794
(lp795
I0
aI1
aI0
aI0
aI1
aI1
aI1
aI0
aa(lp796
I1
aI0
aI0
aI1
aI1
aI1
aI1
aI0
aa(lp797
I0
aI1
aI1
aI0
aI0
aI1
aI0
aI0
aa(lp798
I0
aI0
aI1
aI1
aI1
aI1
aI0
aI0
aa(lp799
I0
aI1
aI0
aI0
aI0
aI1
aI1
aI0
aa(lp800
I0
aI0
aI0
aI0
aI0
aI0
aI1
aI1
aa(lp801
I0
aI1
aI1
aI0
aI1
aI0
aI1
aI0
aa(lp802
I0
aI0
aI1
aI1
aI0
aI1
aI0
aI0
aasI89
(lp803
(lp804
I0
aI0
aI0
aI0
aI0
aI0
aI0
aI1
aa(lp805
I0
aI1
aI0
aI1
aI0
aI0
aI1
aI0
aa(lp806
I0
aI1
aI0
aI1
aI0
aI1
aI1
aI0
aa(lp807
I0
aI1
aI1
aI0
aI1
aI0
aI0
aI1
aa(lp808
I0
aI0
aI0
aI0
aI0
aI0
aI1
aI1
aa(lp809
I0
aI1
aI0
aI1
aI1
aI1
aI0
aI0
aa(lp810
I0
aI1
aI1
aI0
aI1
aI0
aI0
aI1
aa(lp811
I1
aI0
aI0
aI1
aI0
aI0
aI1
aI0
aasI90
(lp812
(lp813
I0
aI1
aI1
aI1
aI1
aI1
aI0
aI1
aa(lp814
I0
aI1
aI1
aI1
aI0
aI1
aI1
aI1
aa(lp815
I1
aI0
aI0
aI1
aI0
aI1
aI1
aI0
aa(lp816
I0
aI1
aI1
aI0
aI1
aI1
aI0
aI1
aa(lp817
I0
aI1
aI1
aI1
aI0
aI1
aI0
aI1
aa(lp818
I1
aI1
aI0
aI0
aI1
aI0
aI0
aI1
aa(lp819
I0
aI0
aI1
aI0
aI1
aI0
aI1
aI0
aa(lp820
I1
aI1
aI1
aI0
aI1
aI1
aI1
aI0
aasI91
(lp821
(lp822
I0
aI0
aI1
aI0
aI0
aI0
aI0
aI1
aa(lp823
I0
aI1
aI1
aI1
aI0
aI0
aI1
aI0
aa(lp824
I0
aI1
aI0
aI1
aI0
aI0
aI0
aI0
aa(lp825
I0
aI1
aI1
aI0
aI1
aI1
aI0
aI0
aa(lp826
I0
aI0
aI1
aI1
aI1
aI0
aI1
aI1
aa(lp827
I0
aI0
aI1
aI1
aI1
aI1
aI1
aI0
aa(lp828
I0
aI1
aI0
aI1
aI0
aI0
aI1
aI0
aa(lp829
I1
aI0
aI0
aI1
aI1
aI1
aI1
aI0
aasI92
(lp830
(lp831
I0
aI1
aI0
aI1
aI1
aI0
aI0
aI0
aa(lp832
I1
aI1
aI0
aI0
aI1
aI1
aI0
aI1
aa(lp833
I1
aI0
aI1
aI1
aI0
aI0
aI0
aI1
aa(lp834
I0
aI1
aI1
aI1
aI0
aI0
aI1
aI1
aa(lp835
I1
aI1
aI0
aI1
aI1
aI1
aI1
aI0
aa(lp836
I0
aI0
aI1
aI1
aI0
aI0
aI1
aI1
aa(lp837
I0
aI1
aI0
aI0
aI1
aI0
aI0
aI0
aa(lp838
I0
aI0
aI1
aI1
aI1
aI0
aI0
aI0
aasI93
(lp839
(lp840
I0
aI1
aI0
aI1
aI0
aI1
aI0
aI1
aa(lp841
I1
aI0
aI0
aI0
aI1
aI1
aI0
aI0
aa(lp842
I0
aI0
aI1
aI0
aI0
aI1
aI0
aI0
aa(lp843
I0
aI0
aI1
aI1
aI1
aI0
aI1
aI0
aa(lp844
I0
aI0
aI1
aI0
aI1
aI1
aI0
aI0
aa(lp845
I1
aI1
aI1
aI1
aI0
aI1
aI1
aI0
aa(lp846
I1
aI1
aI0
aI0
aI1
aI0
aI0
aI1
aa(lp847
I1
aI0
aI0
aI0
aI0
aI0
aI1
aI0
aasI94
(lp848
(lp849
I0
aI1
aI0
aI0
aI0
aI1
aI0
aI1
aa(lp850
I1
aI1
aI1
aI1
aI1
aI1
aI0
aI1
aa(lp851
I0
aI0
aI0
aI1
aI0
aI1
aI1
aI1
aa(lp852
I1
aI0
aI1
aI0
aI1
aI1
aI0
aI1
aa(lp853
I0
aI1
aI0
aI1
aI1
aI1
aI1
aI1
aa(lp854
I0
aI1
aI1
aI0
aI0
aI1
aI1
aI1
aa(lp855
I0
aI0
aI0
aI1
aI1
aI0
aI1
aI0
aa(lp856
I1
aI1
aI0
aI1
aI0
aI1
aI0
aI0
aasI95
(lp857
(lp858
I0
aI0
aI0
aI0
aI1
aI1
aI0
aI0
aa(lp859
I1
aI1
aI0
aI0
aI1
aI1
aI0
aI0
aa(lp860
I0
aI1
aI1
aI0
aI1
aI0
aI1
aI0
aa(lp861
I0
aI0
aI0
aI0
aI1
aI0
aI0
aI0
aa(lp862
I1
aI0
aI1
aI1
aI0
aI0
aI0
aI1
aa(lp863
I1
aI0
aI0
aI1
aI0
aI1
aI0
aI1
aa(lp864
I1
aI1
aI0
aI1
aI1
aI0
aI0
aI0
aa(lp865
I0
aI1
aI1
aI0
aI0
aI0
aI0
aI0
aasI96
(lp866
(lp867
I0
aI1
aI0
aI0
aI0
aI1
aI0
aI0
aa(lp868
I0
aI0
aI0
aI0
aI0
aI1
aI0
aI0
aa(lp869
I0
aI0
aI0
aI0
aI0
aI1
aI0
aI0
aa(lp870
I0
aI0
aI1
aI1
aI0
aI0
aI1
aI0
aa(lp871
I0
aI0
aI0
aI0
aI0
aI0
aI1
aI1
aa(lp872
I0
aI0
aI1
aI1
aI0
aI1
aI1
aI0
aa(lp873
I1
aI0
aI0
aI0
aI0
aI1
aI0
aI0
aa(lp874
I0
aI0
aI1
aI0
aI1
aI0
aI1
aI0
aasI97
(lp875
(lp876
I0
aI0
aI0
aI1
aI0
aI1
aI0
aI0
aa(lp877
I0
aI1
aI0
aI0
aI0
aI1
aI0
aI0
aa(lp878
I0
aI1
aI0
aI1
aI0
aI1
aI1
aI0
aa(lp879
I0
aI1
aI1
aI0
aI1
aI0
aI0
aI0
aa(lp880
I0
aI0
aI1
aI0
aI0
aI0
aI0
aI1
aa(lp881
I0
aI1
aI0
aI1
aI1
aI1
aI1
aI1
aa(lp882
I1
aI0
aI1
aI1
aI0
aI0
aI1
aI1
aa(lp883
I0
aI1
aI1
aI0
aI0
aI0
aI0
aI0
aasI98
(lp884
(lp885
I0
aI0
aI0
aI1
aI1
aI0
aI1
aI1
aa(lp886
I1
aI0
aI1
aI1
aI0
aI0
aI0
aI1
aa(lp887
I1
aI0
aI1
aI0
aI1
aI1
aI1
aI1
aa(lp888
I0
aI0
aI0
aI0
aI1
aI0
aI1
aI0
aa(lp889
I1
aI0
aI0
aI1
aI0
aI1
aI1
aI1
aa(lp890
I0
aI1
aI1
aI0
aI1
aI0
aI1
aI0
aa(lp891
I1
aI1
aI0
aI1
aI0
aI0
aI1
aI1
aa(lp892
I1
aI0
aI0
aI0
aI1
aI1
aI1
aI0
aasI99
(lp893
(lp894
I0
aI1
aI1
aI1
aI0
aI0
aI0
aI1
aa(lp895
I0
aI1
aI0
aI1
aI1
aI1
aI1
aI0
aa(lp896
I1
aI1
aI1
aI0
aI0
aI0
aI0
aI1
aa(lp897
I0
aI0
aI0
aI0
aI0
aI0
aI0
aI0
aa(lp898
I0
aI0
aI1
aI0
aI0
aI0
aI1
aI1
aa(lp899
I1
aI1
aI1
aI0
aI0
aI1
aI1
aI0
aa(lp900
I0
aI0
aI0
aI0
aI1
aI0
aI1
aI1
aa(lp901
I0
aI1
aI1
aI0
aI1
aI0
aI1
aI0
aasI100
(lp902
(lp903
I0
aI0
aI0
aI1
aI1
aI0
aI1
aI0
aa(lp904
I1
aI0
aI1
aI1
aI0
aI0
aI1
aI1
aa(lp905
I0
aI0
aI0
aI0
aI1
aI0
aI0
aI1
aa(lp906
I1
aI0
aI0
aI1
aI1
aI0
aI0
aI0
aa(lp907
I0
aI1
aI0
aI1
aI1
aI1
aI1
aI0
aa(lp908
I0
aI0
aI1
aI1
aI0
aI1
aI0
aI0
aa(lp909
I0
aI1
aI0
aI1
aI0
aI0
aI1
aI1
aa(lp910
I0
aI1
aI0
aI1
aI0
aI1
aI0
aI0
aasI101
(lp911
(lp912
I0
aI0
aI0
aI0
aI0
aI1
aI1
aI1
aa(lp913
I1
aI1
aI1
aI0
aI1
aI0
aI1
aI0
aa(lp914
I1
aI1
aI0
aI0
aI0
aI0
aI1
aI1
aa(lp915
I0
aI1
aI0
aI0
aI0
aI0
aI0
aI0
aa(lp916
I0
aI0
aI0
aI0
aI1
aI0
aI1
aI0
aa(lp917
I0
aI1
aI1
aI1
aI0
aI0
aI1
aI1
aa(lp918
I1
aI0
aI1
aI0
aI1
aI1
aI0
aI0
aa(lp919
I0
aI1
aI0
aI0
aI0
aI1
aI1
aI0
aasI102
(lp920
(lp921
I0
aI0
aI0
aI0
aI0
aI0
aI1
aI1
aa(lp922
I0
aI0
aI1
aI0
aI1
aI1
aI1
aI0
aa(lp923
I1
aI1
aI0
aI1
aI0
aI1
aI1
aI1
aa(lp924
I1
aI0
aI1
aI0
aI0
aI0
aI0
aI1
aa(lp925
I1
aI0
aI0
aI0
aI1
aI0
aI0
aI0
aa(lp926
I1
aI0
aI1
aI0
aI0
aI1
aI0
aI1
aa(lp927
I1
aI1
aI0
aI1
aI0
aI1
aI1
aI0
aa(lp928
I1
aI0
aI0
aI0
aI0
aI0
aI0
aI0
aasI103
(lp929
(lp930
I0
aI0
aI0
aI1
aI0
aI1
aI0
aI1
aa(lp931
I0
aI1
aI0
aI0
aI0
aI1
aI1
aI1
aa(lp932
I1
aI1
aI0
aI1
aI1
aI0
aI1
aI0
aa(lp933
I1
aI1
aI0
aI0
aI1
aI1
aI1
aI1
aa(lp934
I1
aI0
aI1
aI0
aI1
aI1
aI0
aI1
aa(lp935
I0
aI1
aI1
aI0
aI1
aI0
aI0
aI1
aa(lp936
I0
aI1
aI0
aI1
aI1
aI0
aI0
aI0
aa(lp937
I0
aI0
aI1
aI1
aI1
aI1
aI0
aI0
aasI104
(lp938
(lp939
I0
aI0
aI0
aI0
aI0
aI0
aI1
aI1
aa(lp940
I0
aI0
aI1
aI1
aI0
aI0
aI0
aI1
aa(lp941
I0
aI0
aI0
aI0
aI0
aI1
aI0
aI0
aa(lp942
I0
aI0
aI0
aI1
aI0
aI0
aI0
aI0
aa(lp943
I0
aI1
aI0
aI1
aI0
aI1
aI0
aI1
aa(lp944
I0
aI1
aI0
aI0
aI1
aI0
aI1
aI0
aa(lp945
I0
aI0
aI0
aI0
aI1
aI0
aI1
aI0
aa(lp946
I0
aI0
aI1
aI1
aI0
aI1
aI0
aI0
aasI105
(lp947
(lp948
I0
aI0
aI1
aI0
aI0
aI0
aI0
aI1
aa(lp949
I0
aI0
aI0
aI0
aI0
aI0
aI1
aI1
aa(lp950
I0
aI1
aI0
aI1
aI1
aI1
aI1
aI1
aa(lp951
I1
aI1
aI1
aI1
aI0
aI1
aI0
aI0
aa(lp952
I1
aI1
aI1
aI0
aI1
aI0
aI0
aI0
aa(lp953
I1
aI1
aI0
aI0
aI0
aI1
aI1
aI0
aa(lp954
I0
aI0
aI0
aI0
aI0
aI1
aI0
aI1
aa(lp955
I1
aI0
aI1
aI0
aI0
aI1
aI1
aI0
aasI106
(lp956
(lp957
I0
aI1
aI0
aI0
aI0
aI0
aI0
aI1
aa(lp958
I0
aI1
aI0
aI1
aI1
aI0
aI1
aI0
aa(lp959
I0
aI0
aI0
aI1
aI1
aI1
aI0
aI1
aa(lp960
I0
aI0
aI0
aI1
aI0
aI1
aI1
aI1
aa(lp961
I0
aI1
aI1
aI0
aI0
aI1
aI0
aI1
aa(lp962
I0
aI0
aI1
aI0
aI0
aI1
aI0
aI1
aa(lp963
I1
aI1
aI1
aI1
aI0
aI1
aI0
aI0
aa(lp964
I0
aI0
aI0
aI1
aI0
aI0
aI1
aI0
aasI107
(lp965
(lp966
I0
aI1
aI0
aI0
aI0
aI0
aI0
aI0
aa(lp967
I1
aI1
aI0
aI0
aI0
aI0
aI1
aI1
aa(lp968
I0
aI1
aI0
aI0
aI1
aI0
aI0
aI1
aa(lp969
I0
aI1
aI1
aI0
aI0
aI0
aI0
aI1
aa(lp970
I0
aI0
aI1
aI0
aI0
aI1
aI1
aI0
aa(lp971
I0
aI0
aI0
aI0
aI1
aI0
aI0
aI0
aa(lp972
I0
aI0
aI0
aI0
aI1
aI1
aI0
aI1
aa(lp973
I1
aI1
aI0
aI1
aI1
aI1
aI0
aI0
aasI108
(lp974
(lp975
I0
aI0
aI1
aI0
aI1
aI0
aI1
aI0
aa(lp976
I0
aI0
aI0
aI1
aI0
aI1
aI0
aI0
aa(lp977
I0
aI0
aI0
aI0
aI1
aI1
aI0
aI0
aa(lp978
I0
aI0
aI0
aI1
aI1
aI1
aI0
aI1
aa(lp979
I1
aI0
aI0
aI1
aI0
aI0
aI0
aI0
aa(lp980
I1
aI0
aI0
aI1
aI1
aI1
aI1
aI1
aa(lp981
I1
aI1
aI0
aI1
aI1
aI1
aI1
aI1
aa(lp982
I1
aI1
aI1
aI0
aI1
aI0
aI0
aI0
aasI109
(lp983
(lp984
I0
aI0
aI1
aI0
aI0
aI1
aI0
aI0
aa(lp985
I1
aI1
aI0
aI0
aI1
aI1
aI0
aI1
aa(lp986
I0
aI1
aI1
aI1
aI0
aI0
aI0
aI0
aa(lp987
I0
aI0
aI0
aI1
aI0
aI1
aI0
aI1
aa(lp988
I0
aI0
aI1
aI1
aI1
aI1
aI0
aI1
aa(lp989
I1
aI1
aI0
aI0
aI1
aI0
aI1
aI0
aa(lp990
I1
aI1
aI1
aI0
aI1
aI0
aI1
aI0
aa(lp991
I0
aI0
aI1
aI0
aI0
aI0
aI1
aI0
aasI110
(lp992
(lp993
I0
aI0
aI1
aI1
aI0
aI0
aI0
aI1
aa(lp994
I1
aI1
aI0
aI0
aI0
aI1
aI0
aI0
aa(lp995
I1
aI1
aI0
aI0
aI0
aI0
aI0
aI0
aa(lp996
I0
aI1
aI1
aI1
aI1
aI0
aI0
aI1
aa(lp997
I0
aI0
aI1
aI1
aI0
aI1
aI0
aI1
aa(lp998
I1
aI1
aI1
aI1
aI0
aI0
aI0
aI0
aa(lp999
I1
aI1
aI1
aI0
aI1
aI0
aI0
aI1
aa(lp1000
I1
aI0
aI1
aI1
aI0
aI0
aI0
aI0
aasI111
(lp1001
(lp1002
I0
aI1
aI0
aI1
aI0
aI1
aI1
aI0
aa(lp1003
I1
aI0
aI0
aI0
aI0
aI1
aI1
aI1
aa(lp1004
I0
aI0
aI1
aI0
aI0
aI0
aI0
aI1
aa(lp1005
I1
aI1
aI0
aI0
aI0
aI1
aI0
aI0
aa(lp1006
I1
aI1
aI0
aI1
aI0
aI0
aI1
aI1
aa(lp1007
I0
aI0
aI0
aI0
aI1
aI0
aI0
aI0
aa(lp1008
I0
aI1
aI1
aI1
aI0
aI1
aI0
aI1
aa(lp1009
I1
aI1
aI1
aI1
aI0
aI1
aI0
aI0
aasI112
(lp1010
(lp1011
I0
aI0
aI0
aI1
aI1
aI0
aI0
aI0
aa(lp1012
I0
aI0
aI1
aI0
aI0
aI1
aI0
aI0
aa(lp1013
I0
aI1
aI1
aI0
aI0
aI0
aI1
aI1
aa(lp1014
I1
aI0
aI0
aI0
aI0
aI0
aI0
aI1
aa(lp1015
I1
aI0
aI1
aI0
aI0
aI0
aI0
aI1
aa(lp1016
I0
aI0
aI1
aI0
aI1
aI1
aI1
aI0
aa(lp1017
I0
aI1
aI0
aI0
aI1
aI1
aI0
aI0
aa(lp1018
I0
aI1
aI0
aI0
aI0
aI0
aI1
aI0
aasI113
(lp1019
(lp1020
I0
aI0
aI1
aI1
aI0
aI1
aI0
aI0
aa(lp1021
I0
aI1
aI1
aI1
aI1
aI1
aI1
aI1
aa(lp1022
I0
aI0
aI1
aI0
aI0
aI0
aI1
aI1
aa(lp1023
I1
aI0
aI1
aI0
aI1
aI1
aI0
aI1
aa(lp1024
I0
aI0
aI1
aI0
aI1
aI0
aI0
aI0
aa(lp1025
I1
aI0
aI1
aI1
aI0
aI0
aI1
aI1
aa(lp1026
I0
aI0
aI0
aI1
aI1
aI0
aI0
aI0
aa(lp1027
I0
aI0
aI0
aI1
aI0
aI0
aI1
aI0
aasI114
(lp1028
(lp1029
I0
aI0
aI1
aI1
aI0
aI0
aI1
aI1
aa(lp1030
I0
aI0
aI0
aI0
aI0
aI0
aI1
aI1
aa(lp1031
I0
aI0
aI1
aI1
aI0
aI0
aI1
aI1
aa(lp1032
I1
aI1
aI1
aI0
aI1
aI1
aI0
aI0
aa(lp1033
I0
aI1
aI0
aI0
aI1
aI0
aI1
aI0
aa(lp1034
I1
aI1
aI1
aI1
aI1
aI0
aI1
aI1
aa(lp1035
I1
aI1
aI0
aI0
aI0
aI1
aI1
aI1
aa(lp1036
I1
aI0
aI0
aI0
aI1
aI1
aI0
aI0
aasI115
(lp1037
(lp1038
I0
aI1
aI1
aI0
aI0
aI0
aI0
aI1
aa(lp1039
I0
aI0
aI0
aI0
aI1
aI1
aI1
aI0
aa(lp1040
I0
aI1
aI1
aI1
aI0
aI1
aI1
aI0
aa(lp1041
I1
aI0
aI1
aI0
aI0
aI1
aI1
aI0
aa(lp1042
I0
aI1
aI0
aI1
aI0
aI1
aI1
aI1
aa(lp1043
I0
aI1
aI1
aI0
aI0
aI0
aI1
aI0
aa(lp1044
I1
aI0
aI0
aI0
aI0
aI0
aI1
aI0
aa(lp1045
I1
aI1
aI1
aI0
aI0
aI1
aI1
aI0
aasI116
(lp1046
(lp1047
I0
aI0
aI0
aI1
aI0
aI0
aI1
aI1
aa(lp1048
I1
aI1
aI0
aI1
aI0
aI1
aI0
aI0
aa(lp1049
I0
aI0
aI1
aI0
aI0
aI1
aI1
aI1
aa(lp1050
I1
aI1
aI1
aI0
aI0
aI1
aI0
aI1
aa(lp1051
I0
aI1
aI1
aI0
aI1
aI0
aI0
aI0
aa(lp1052
I1
aI0
aI1
aI0
aI1
aI0
aI0
aI1
aa(lp1053
I0
aI0
aI0
aI1
aI0
aI0
aI0
aI0
aa(lp1054
I1
aI0
aI0
aI0
aI0
aI1
aI0
aI0
aasI117
(lp1055
(lp1056
I0
aI1
aI1
aI1
aI0
aI1
aI1
aI0
aa(lp1057
I0
aI0
aI1
aI1
aI0
aI1
aI0
aI0
aa(lp1058
I0
aI1
aI1
aI1
aI1
aI1
aI1
aI0
aa(lp1059
I1
aI1
aI1
aI0
aI1
aI0
aI1
aI0
aa(lp1060
I1
aI1
aI1
aI1
aI1
aI1
aI1
aI0
aa(lp1061
I0
aI1
aI1
aI0
aI1
aI0
aI0
aI1
aa(lp1062
I0
aI1
aI0
aI0
aI0
aI1
aI0
aI1
aa(lp1063
I0
aI1
aI1
aI1
aI0
aI0
aI1
aI0
aasI118
(lp1064
(lp1065
I0
aI1
aI0
aI0
aI1
aI1
aI1
aI1
aa(lp1066
I0
aI0
aI1
aI0
aI1
aI0
aI0
aI1
aa(lp1067
I0
aI0
aI0
aI1
aI1
aI0
aI1
aI0
aa(lp1068
I0
aI1
aI1
aI0
aI0
aI1
aI0
aI0
aa(lp1069
I1
aI1
aI0
aI0
aI0
aI1
aI0
aI0
aa(lp1070
I0
aI1
aI0
aI0
aI0
aI0
aI1
aI1
aa(lp1071
I1
aI1
aI0
aI0
aI1
aI0
aI0
aI1
aa(lp1072
I0
aI0
aI0
aI0
aI0
aI0
aI0
aI0
aasI119
(lp1073
(lp1074
I0
aI0
aI0
aI1
aI1
aI0
aI0
aI1
aa(lp1075
I1
aI1
aI0
aI1
aI1
aI1
aI1
aI0
aa(lp1076
I0
aI0
aI0
aI0
aI0
aI0
aI1
aI0
aa(lp1077
I0
aI1
aI0
aI0
aI1
aI0
aI1
aI1
aa(lp1078
I1
aI1
aI0
aI0
aI1
aI1
aI0
aI0
aa(lp1079
I0
aI1
aI1
aI1
aI0
aI0
aI1
aI0
aa(lp1080
I1
aI1
aI1
aI0
aI1
aI1
aI0
aI0
aa(lp1081
I1
aI0
aI0
aI1
aI1
aI1
aI0
aI0
aasI120
(lp1082
(lp1083
I0
aI1
aI0
aI0
aI0
aI1
aI0
aI1
aa(lp1084
I0
aI0
aI1
aI1
aI0
aI1
aI1
aI0
aa(lp1085
I0
aI0
aI1
aI1
aI0
aI0
aI0
aI0
aa(lp1086
I1
aI0
aI1
aI1
aI1
aI1
aI1
aI0
aa(lp1087
I1
aI1
aI0
aI1
aI0
aI0
aI0
aI1
aa(lp1088
I1
aI1
aI0
aI0
aI0
aI0
aI0
aI0
aa(lp1089
I0
aI1
aI0
aI0
aI1
aI1
aI1
aI1
aa(lp1090
I0
aI0
aI1
aI1
aI0
aI0
aI0
aI0
aasI121
(lp1091
(lp1092
I0
aI0
aI1
aI1
aI0
aI1
aI1
aI1
aa(lp1093
I1
aI0
aI0
aI1
aI1
aI0
aI1
aI1
aa(lp1094
I1
aI1
aI0
aI0
aI1
aI1
aI0
aI1
aa(lp1095
I1
aI0
aI0
aI1
aI0
aI0
aI1
aI1
aa(lp1096
I0
aI1
aI0
aI0
aI1
aI1
aI0
aI1
aa(lp1097
I0
aI1
aI0
aI0
aI1
aI0
aI1
aI1
aa(lp1098
I0
aI1
aI0
aI0
aI1
aI0
aI0
aI0
aa(lp1099
I0
aI0
aI0
aI0
aI1
aI0
aI1
aI0
aasI122
(lp1100
(lp1101
I0
aI0
aI0
aI0
aI0
aI0
aI1
aI0
aa(lp1102
I0
aI1
aI0
aI1
aI0
aI1
aI1
aI1
aa(lp1103
I0
aI0
aI0
aI1
aI1
aI1
aI0
aI1
aa(lp1104
I1
aI1
aI1
aI0
aI0
aI1
aI0
aI1
aa(lp1105
I0
aI0
aI0
aI0
aI0
aI0
aI1
aI1
aa(lp1106
I1
aI1
aI0
aI0
aI0
aI0
aI1
aI0
aa(lp1107
I1
aI0
aI1
aI0
aI0
aI0
aI0
aI1
aa(lp1108
I1
aI1
aI0
aI1
aI1
aI1
aI0
aI0
aasI123
(lp1109
(lp1110
I0
aI1
aI1
aI1
aI0
aI1
aI0
aI1
aa(lp1111
I1
aI1
aI0
aI1
aI1
aI1
aI0
aI1
aa(lp1112
I1
aI1
aI0
aI1
aI1
aI1
aI0
aI1
aa(lp1113
I1
aI1
aI0
aI0
aI0
aI1
aI0
aI0
aa(lp1114
I1
aI1
aI0
aI0
aI0
aI0
aI0
aI0
aa(lp1115
I1
aI1
aI0
aI1
aI1
aI1
aI1
aI1
aa(lp1116
I0
aI1
aI1
aI0
aI0
aI0
aI0
aI1
aa(lp1117
I1
aI1
aI1
aI1
aI1
aI0
aI1
aI0
aasI124
(lp1118
(lp1119
I0
aI1
aI1
aI0
aI1
aI1
aI0
aI1
aa(lp1120
I1
aI0
aI0
aI1
aI0
aI0
aI1
aI0
aa(lp1121
I1
aI1
aI0
aI1
aI1
aI1
aI0
aI1
aa(lp1122
I0
aI0
aI0
aI1
aI0
aI1
aI0
aI0
aa(lp1123
I0
aI1
aI0
aI0
aI1
aI0
aI1
aI1
aa(lp1124
I0
aI0
aI1
aI0
aI1
aI1
aI0
aI0
aa(lp1125
I1
aI1
aI0
aI1
aI0
aI0
aI0
aI0
aa(lp1126
I0
aI0
aI0
aI0
aI1
aI0
aI0
aI0
aasI125
(lp1127
(lp1128
I0
aI0
aI0
aI1
aI1
aI1
aI1
aI0
aa(lp1129
I1
aI1
aI1
aI1
aI1
aI0
aI0
aI0
aa(lp1130
I0
aI1
aI1
aI1
aI0
aI1
aI1
aI1
aa(lp1131
I1
aI1
aI0
aI1
aI0
aI1
aI0
aI1
aa(lp1132
I0
aI1
aI1
aI0
aI0
aI1
aI0
aI0
aa(lp1133
I0
aI1
aI1
aI0
aI0
aI1
aI0
aI1
aa(lp1134
I0
aI1
aI0
aI1
aI0
aI0
aI1
aI0
aa(lp1135
I0
aI0
aI1
aI1
aI0
aI1
aI1
aI0
aasI126
(lp1136
(lp1137
I0
aI0
aI0
aI1
aI0
aI0
aI0
aI0
aa(lp1138
I0
aI0
aI0
aI0
aI1
aI0
aI0
aI0
aa(lp1139
I0
aI1
aI1
aI1
aI0
aI1
aI1
aI1
aa(lp1140
I0
aI1
aI1
aI0
aI1
aI1
aI1
aI0
aa(lp1141
I0
aI1
aI1
aI1
aI0
aI1
aI1
aI1
aa(lp1142
I1
aI0
aI0
aI0
aI1
aI0
aI0
aI1
aa(lp1143
I1
aI1
aI0
aI1
aI1
aI1
aI0
aI0
aa(lp1144
I0
aI1
aI1
aI0
aI1
aI1
aI0
aI0
aasI127
(lp1145
(lp1146
I0
aI0
aI0
aI1
aI1
aI0
aI1
aI0
aa(lp1147
I0
aI1
aI1
aI0
aI1
aI0
aI1
aI0
aa(lp1148
I1
aI0
aI0
aI1
aI1
aI0
aI0
aI0
aa(lp1149
I0
aI1
aI0
aI1
aI1
aI1
aI1
aI1
aa(lp1150
I0
aI1
aI1
aI1
aI0
aI1
aI0
aI0
aa(lp1151
I1
aI1
aI1
aI0
aI0
aI0
aI0
aI1
aa(lp1152
I0
aI1
aI0
aI0
aI0
aI0
aI1
aI0
aa(lp1153
I1
aI0
aI1
aI0
aI1
aI0
aI0
aI0
aasI128
(lp1154
(lp1155
I0
aI1
aI1
aI0
aI1
aI1
aI1
aI0
aa(lp1156
I0
aI0
aI1
aI0
aI0
aI1
aI0
aI0
aa(lp1157
I1
aI1
aI1
aI0
aI0
aI0
aI1
aI1
aa(lp1158
I0
aI1
aI0
aI0
aI1
aI0
aI1
aI0
aa(lp1159
I0
aI0
aI0
aI0
aI0
aI0
aI1
aI1
aa(lp1160
I1
aI0
aI0
aI0
aI0
aI0
aI1
aI0
aa(lp1161
I0
aI1
aI0
aI0
aI1
aI0
aI1
aI1
aa(lp1162
I1
aI0
aI0
aI1
aI1
aI1
aI0
aI0
aasI129
(lp1163
(lp1164
I0
aI1
aI0
aI0
aI1
aI0
aI0
aI0
aa(lp1165
I1
aI0
aI0
aI1
aI1
aI1
aI1
aI1
aa(lp1166
I0
aI1
aI0
aI1
aI1
aI0
aI0
aI1
aa(lp1167
I1
aI1
aI1
aI0
aI1
aI0
aI0
aI1
aa(lp1168
I0
aI1
aI0
aI1
aI1
aI0
aI1
aI0
aa(lp1169
I1
aI1
aI0
aI1
aI0
aI0
aI1
aI0
aa(lp1170
I1
aI1
aI1
aI0
aI0
aI0
aI1
aI1
aa(lp1171
I0
aI0
aI1
aI1
aI1
aI1
aI0
aI0
aasI130
(lp1172
(lp1173
I0
aI1
aI1
aI1
aI1
aI1
aI0
aI0
aa(lp1174
I1
aI0
aI1
aI1
aI0
aI0
aI1
aI1
aa(lp1175
I1
aI0
aI0
aI0
aI0
aI1
aI0
aI1
aa(lp1176
I0
aI1
aI1
aI0
aI0
aI1
aI1
aI0
aa(lp1177
I1
aI0
aI0
aI1
aI0
aI1
aI0
aI0
aa(lp1178
I0
aI0
aI1
aI0
aI1
aI1
aI0
aI0
aa(lp1179
I1
aI1
aI1
aI0
aI1
aI0
aI0
aI1
aa(lp1180
I1
aI1
aI1
aI0
aI1
aI1
aI1
aI0
aasI131
(lp1181
(lp1182
I0
aI0
aI1
aI1
aI1
aI0
aI1
aI1
aa(lp1183
I0
aI0
aI0
aI0
aI0
aI1
aI0
aI1
aa(lp1184
I1
aI1
aI1
aI1
aI1
aI1
aI0
aI1
aa(lp1185
I0
aI0
aI1
aI1
aI0
aI1
aI1
aI0
aa(lp1186
I1
aI1
aI1
aI1
aI1
aI0
aI0
aI1
aa(lp1187
I1
aI0
aI1
aI1
aI0
aI1
aI1
aI1
aa(lp1188
I0
aI1
aI0
aI1
aI0
aI0
aI0
aI0
aa(lp1189
I0
aI0
aI0
aI0
aI1
aI0
aI0
aI0
aasI132
(lp1190
(lp1191
I0
aI0
aI0
aI0
aI0
aI0
aI1
aI0
aa(lp1192
I0
aI0
aI1
aI0
aI0
aI1
aI1
aI0
aa(lp1193
I0
aI0
aI1
aI1
aI1
aI1
aI0
aI1
aa(lp1194
I1
aI1
aI0
aI1
aI1
aI0
aI1
aI0
aa(lp1195
I0
aI1
aI1
aI1
aI0
aI1
aI0
aI1
aa(lp1196
I1
aI1
aI1
aI1
aI0
aI1
aI0
aI1
aa(lp1197
I0
aI0
aI0
aI1
aI1
aI0
aI0
aI1
aa(lp1198
I0
aI0
aI0
aI1
aI0
aI1
aI0
aI0
aasI133
(lp1199
(lp1200
I0
aI0
aI0
aI0
aI1
aI1
aI0
aI1
aa(lp1201
I0
aI1
aI0
aI1
aI1
aI1
aI0
aI1
aa(lp1202
I0
aI1
aI1
aI0
aI1
aI0
aI0
aI1
aa(lp1203
I1
aI0
aI1
aI1
aI0
aI1
aI1
aI1
aa(lp1204
I0
aI0
aI0
aI1
aI0
aI1
aI0
aI1
aa(lp1205
I0
aI1
aI0
aI0
aI1
aI1
aI1
aI1
aa(lp1206
I0
aI0
aI1
aI0
aI0
aI0
aI1
aI0
aa(lp1207
I0
aI1
aI1
aI0
aI0
aI0
aI0
aI0
aasI134
(lp1208
(lp1209
I0
aI1
aI0
aI0
aI0
aI1
aI0
aI0
aa(lp1210
I0
aI0
aI1
aI0
aI0
aI1
aI0
aI0
aa(lp1211
I0
aI1
aI0
aI1
aI1
aI1
aI1
aI0
aa(lp1212
I1
aI0
aI1
aI1
aI0
aI1
aI0
aI1
aa(lp1213
I1
aI1
aI1
aI0
aI1
aI1
aI1
aI1
aa(lp1214
I1
aI0
aI0
aI0
aI1
aI0
aI0
aI0
aa(lp1215
I1
aI1
aI0
aI0
aI1
aI1
aI0
aI0
aa(lp1216
I1
aI1
aI1
aI1
aI1
aI0
aI1
aI0
aasI135
(lp1217
(lp1218
I0
aI1
aI1
aI1
aI0
aI0
aI0
aI0
aa(lp1219
I0
aI0
aI0
aI0
aI1
aI0
aI1
aI1
aa(lp1220
I1
aI1
aI0
aI1
aI1
aI0
aI1
aI1
aa(lp1221
I1
aI1
aI0
aI0
aI1
aI1
aI1
aI1
aa(lp1222
I0
aI1
aI1
aI1
aI1
aI0
aI1
aI1
aa(lp1223
I1
aI0
aI1
aI1
aI0
aI1
aI0
aI0
aa(lp1224
I0
aI0
aI0
aI0
aI1
aI0
aI0
aI0
aa(lp1225
I1
aI1
aI1
aI0
aI0
aI1
aI0
aI0
aasI136
(lp1226
(lp1227
I0
aI1
aI0
aI1
aI1
aI0
aI1
aI1
aa(lp1228
I1
aI1
aI1
aI1
aI0
aI0
aI1
aI0
aa(lp1229
I0
aI0
aI1
aI0
aI1
aI0
aI1
aI1
aa(lp1230
I1
aI0
aI1
aI0
aI0
aI0
aI1
aI0
aa(lp1231
I0
aI1
aI1
aI0
aI1
aI1
aI0
aI1
aa(lp1232
I0
aI0
aI1
aI0
aI1
aI0
aI0
aI1
aa(lp1233
I0
aI1
aI0
aI1
aI0
aI1
aI1
aI1
aa(lp1234
I1
aI1
aI0
aI0
aI0
aI0
aI0
aI0
aasI137
(lp1235
(lp1236
I0
aI1
aI0
aI0
aI1
aI0
aI1
aI1
aa(lp1237
I1
aI1
aI0
aI1
aI1
aI1
aI1
aI1
aa(lp1238
I1
aI0
aI0
aI0
aI1
aI0
aI0
aI1
aa(lp1239
I0
aI1
aI0
aI0
aI0
aI1
aI1
aI1
aa(lp1240
I1
aI1
aI1
aI1
aI0
aI1
aI1
aI1
aa(lp1241
I1
aI1
aI0
aI0
aI1
aI0
aI0
aI0
aa(lp1242
I0
aI1
aI1
aI0
aI1
aI1
aI0
aI1
aa(lp1243
I1
aI0
aI1
aI0
aI1
aI1
aI0
aI0
aasI138
(lp1244
(lp1245
I0
aI1
aI1
aI1
aI1
aI1
aI1
aI1
aa(lp1246
I1
aI1
aI0
aI1
aI1
aI0
aI1
aI0
aa(lp1247
I1
aI1
aI0
aI1
aI0
aI0
aI1
aI0
aa(lp1248
I0
aI1
aI0
aI1
aI0
aI0
aI1
aI0
aa(lp1249
I1
aI0
aI0
aI1
aI1
aI1
aI1
aI0
aa(lp1250
I1
aI0
aI0
aI1
aI0
aI0
aI0
aI0
aa(lp1251
I1
aI1
aI1
aI1
aI0
aI0
aI0
aI1
aa(lp1252
I0
aI1
aI0
aI0
aI1
aI0
aI1
aI0
aasI139
(lp1253
(lp1254
I0
aI1
aI0
aI1
aI0
aI0
aI0
aI1
aa(lp1255
I1
aI0
aI1
aI1
aI1
aI0
aI1
aI1
aa(lp1256
I0
aI0
aI1
aI1
aI1
aI1
aI1
aI0
aa(lp1257
I1
aI0
aI1
aI0
aI0
aI1
aI1
aI1
aa(lp1258
I1
aI1
aI0
aI0
aI0
aI0
aI1
aI0
aa(lp1259
I1
aI1
aI0
aI1
aI0
aI0
aI1
aI1
aa(lp1260
I0
aI0
aI1
aI0
aI1
aI1
aI0
aI0
aa(lp1261
I1
aI1
aI1
aI1
aI0
aI0
aI1
aI0
aasI140
(lp1262
(lp1263
I0
aI1
aI1
aI0
aI0
aI0
aI1
aI1
aa(lp1264
I1
aI0
aI0
aI1
aI1
aI0
aI1
aI1
aa(lp1265
I1
aI1
aI0
aI1
aI0
aI1
aI1
aI0
aa(lp1266
I0
aI0
aI0
aI1
aI1
aI0
aI1
aI1
aa(lp1267
I0
aI1
aI1
aI1
aI0
aI0
aI0
aI0
aa(lp1268
I0
aI1
aI1
aI1
aI1
aI1
aI0
aI0
aa(lp1269
I1
aI1
aI1
aI1
aI0
aI0
aI1
aI0
aa(lp1270
I0
aI1
aI0
aI0
aI0
aI0
aI0
aI0
aasI141
(lp1271
(lp1272
I0
aI1
aI0
aI0
aI1
aI0
aI1
aI1
aa(lp1273
I1
aI1
aI0
aI0
aI0
aI0
aI1
aI0
aa(lp1274
I0
aI1
aI0
aI0
aI1
aI1
aI0
aI0
aa(lp1275
I1
aI0
aI1
aI1
aI0
aI1
aI0
aI0
aa(lp1276
I0
aI0
aI0
aI0
aI0
aI1
aI1
aI1
aa(lp1277
I0
aI0
aI1
aI1
aI0
aI1
aI0
aI0
aa(lp1278
I0
aI1
aI0
aI0
aI0
aI1
aI0
aI1
aa(lp1279
I1
aI0
aI0
aI0
aI0
aI1
aI1
aI0
aasI142
(lp1280
(lp1281
I0
aI0
aI0
aI1
aI0
aI0
aI1
aI1
aa(lp1282
I1
aI0
aI1
aI0
aI1
aI0
aI1
aI0
aa(lp1283
I0
aI1
aI0
aI0
aI1
aI0
aI0
aI0
aa(lp1284
I1
aI1
aI0
aI0
aI0
aI1
aI0
aI0
aa(lp1285
I1
aI0
aI0
aI1
aI1
aI1
aI1
aI1
aa(lp1286
I1
aI0
aI0
aI1
aI0
aI0
aI0
aI1
aa(lp1287
I1
aI1
aI0
aI0
aI0
aI1
aI1
aI1
aa(lp1288
I1
aI1
aI1
aI1
aI1
aI1
aI1
aI0
aasI143
(lp1289
(lp1290
I0
aI1
aI0
aI0
aI1
aI1
aI1
aI0
aa(lp1291
I0
aI1
aI0
aI0
aI0
aI0
aI1
aI1
aa(lp1292
I0
aI1
aI0
aI0
aI1
aI1
aI1
aI1
aa(lp1293
I0
aI0
aI0
aI1
aI1
aI1
aI1
aI1
aa(lp1294
I1
aI0
aI1
aI0
aI1
aI1
aI0
aI0
aa(lp1295
I0
aI0
aI0
aI0
aI0
aI1
aI0
aI1
aa(lp1296
I0
aI0
aI1
aI0
aI0
aI1
aI0
aI1
aa(lp1297
I0
aI1
aI0
aI1
aI1
aI0
aI1
aI0
aasI144
(lp1298
(lp1299
I0
aI0
aI0
aI0
aI0
aI1
aI0
aI1
aa(lp1300
I0
aI1
aI1
aI0
aI0
aI1
aI0
aI0
aa(lp1301
I0
aI1
aI0
aI0
aI1
aI0
aI1
aI1
aa(lp1302
I1
aI1
aI1
aI1
aI1
aI0
aI0
aI1
aa(lp1303
I1
aI1
aI0
aI1
aI0
aI0
aI0
aI1
aa(lp1304
I0
aI1
aI1
aI1
aI1
aI0
aI1
aI1
aa(lp1305
I0
aI0
aI0
aI1
aI1
aI1
aI0
aI1
aa(lp1306
I1
aI1
aI0
aI0
aI0
aI1
aI0
aI0
aasI145
(lp1307
(lp1308
I0
aI1
aI0
aI0
aI1
aI1
aI0
aI1
aa(lp1309
I1
aI1
aI1
aI0
aI0
aI0
aI1
aI1
aa(lp1310
I0
aI1
aI0
aI1
aI1
aI0
aI0
aI1
aa(lp1311
I1
aI1
aI0
aI0
aI0
aI0
aI0
aI1
aa(lp1312
I1
aI1
aI1
aI0
aI1
aI1
aI1
aI0
aa(lp1313
I0
aI1
aI1
aI0
aI1
aI1
aI0
aI0
aa(lp1314
I1
aI0
aI0
aI1
aI1
aI0
aI1
aI1
aa(lp1315
I1
aI1
aI0
aI0
aI0
aI0
aI1
aI0
aasI146
(lp1316
(lp1317
I0
aI0
aI0
aI0
aI0
aI1
aI0
aI1
aa(lp1318
I0
aI1
aI0
aI1
aI0
aI1
aI0
aI0
aa(lp1319
I0
aI1
aI1
aI1
aI0
aI0
aI0
aI0
aa(lp1320
I0
aI1
aI1
aI1
aI1
aI1
aI1
aI1
aa(lp1321
I1
aI0
aI1
aI0
aI1
aI1
aI0
aI0
aa(lp1322
I1
aI1
aI1
aI1
aI1
aI0
aI0
aI0
aa(lp1323
I1
aI1
aI0
aI0
aI0
aI1
aI1
aI1
aa(lp1324
I1
aI1
aI0
aI1
aI1
aI0
aI0
aI0
aasI147
(lp1325
(lp1326
I0
aI0
aI0
aI0
aI1
aI0
aI1
aI0
aa(lp1327
I0
aI0
aI0
aI0
aI0
aI0
aI0
aI1
aa(lp1328
I0
aI0
aI0
aI0
aI1
aI0
aI1
aI0
aa(lp1329
I0
aI1
aI1
aI0
aI0
aI0
aI0
aI1
aa(lp1330
I1
aI1
aI1
aI0
aI1
aI1
aI1
aI0
aa(lp1331
I1
aI1
aI0
aI0
aI1
aI0
aI0
aI0
aa(lp1332
I0
aI0
aI0
aI0
aI0
aI1
aI1
aI0
aa(lp1333
I1
aI1
aI0
aI0
aI0
aI1
aI1
aI0
aasI148
(lp1334
(lp1335
I0
aI0
aI0
aI1
aI1
aI0
aI1
aI1
aa(lp1336
I1
aI0
aI1
aI0
aI0
aI0
aI0
aI1
aa(lp1337
I0
aI1
aI0
aI0
aI1
aI0
aI0
aI0
aa(lp1338
I1
aI0
aI0
aI1
aI0
aI0
aI0
aI0
aa(lp1339
I1
aI1
aI0
aI0
aI1
aI0
aI0
aI0
aa(lp1340
I1
aI0
aI1
aI0
aI0
aI1
aI1
aI0
aa(lp1341
I0
aI1
aI0
aI0
aI0
aI1
aI0
aI0
aa(lp1342
I1
aI1
aI1
aI0
aI1
aI0
aI0
aI0
aasI149
(lp1343
(lp1344
I0
aI0
aI0
aI0
aI1
aI1
aI0
aI1
aa(lp1345
I0
aI1
aI1
aI0
aI1
aI1
aI1
aI0
aa(lp1346
I0
aI1
aI1
aI1
aI0
aI1
aI0
aI0
aa(lp1347
I0
aI1
aI0
aI0
aI0
aI1
aI0
aI0
aa(lp1348
I0
aI1
aI1
aI0
aI0
aI1
aI0
aI0
aa(lp1349
I0
aI0
aI1
aI0
aI0
aI1
aI1
aI0
aa(lp1350
I0
aI1
aI1
aI1
aI1
aI0
aI1
aI0
aa(lp1351
I1
aI1
aI1
aI0
aI1
aI1
aI1
aI0
aas.